	.text
	.file	"llvm-link"
	.file	1 "/home/salman/DPP/data/KPRCA_00064/src/./sc.h"
	.file	2 "/usr/lib/llvm-10/lib/clang/10.0.0/include/stddef.h"
	.file	3 "/home/salman/DPP/data/KPRCA_00064/src/main.c"
	.globl	bit_new                         // -- Begin function bit_new
	.p2align	2
	.type	bit_new,@function
bit_new:                                // @bit_new
.Lfunc_begin0:
	.file	4 "/home/salman/DPP/data/KPRCA_00064/src/sc.c"
	.loc	4 31 0                          // sc.c:31:0
	.cfi_startproc
// %bb.0:
	//DEBUG_VALUE: bit_new:data <- $x0
	stp	x30, x19, [sp, #-16]!           // 16-byte Folded Spill
	.cfi_def_cfa_offset 16
	.cfi_offset w19, -8
	.cfi_offset w30, -16
	mov	x19, x0
.Ltmp0:
	//DEBUG_VALUE: bit_new:data <- $x19
	.loc	4 32 28 prologue_end            // sc.c:32:28
	mov	w0, #16
	bl	malloc
.Ltmp1:
	//DEBUG_VALUE: bit_new:bio <- $x0
	.loc	4 33 15                         // sc.c:33:15
	stp	x19, xzr, [x0]
	.loc	4 37 5                          // sc.c:37:5
	ldp	x30, x19, [sp], #16             // 16-byte Folded Reload
.Ltmp2:
	//DEBUG_VALUE: bit_new:data <- [DW_OP_LLVM_entry_value 1] $x0
	ret
.Ltmp3:
.Lfunc_end0:
	.size	bit_new, .Lfunc_end0-bit_new
	.cfi_endproc
                                        // -- End function
	.globl	bit_read                        // -- Begin function bit_read
	.p2align	2
	.type	bit_read,@function
bit_read:                               // @bit_read
.Lfunc_begin1:
	.loc	4 41 0                          // sc.c:41:0
	.cfi_startproc
// %bb.0:
	//DEBUG_VALUE: bit_read:bio <- $x0
	//DEBUG_VALUE: bit_read:bio <- $x0
	//DEBUG_VALUE: bit_read:n <- $x1
	//DEBUG_VALUE: bit_read:n <- $x1
	//DEBUG_VALUE: bit_read:b <- undef
	//DEBUG_VALUE: bit_read:ret <- 0
	//DEBUG_VALUE: bit_read:i <- 0
	.loc	4 44 5 prologue_end             // sc.c:44:5
	cbz	x1, .LBB1_6
.Ltmp4:
// %bb.1:
	//DEBUG_VALUE: bit_read:n <- $x1
	//DEBUG_VALUE: bit_read:bio <- $x0
	//DEBUG_VALUE: bit_read:i <- 0
	//DEBUG_VALUE: bit_read:ret <- 0
	.loc	4 0 5 is_stmt 0                 // sc.c:0:5
	mov	x9, xzr
	mov	w8, wzr
	ldr	x10, [x0]
	.loc	4 43 38 is_stmt 1               // sc.c:43:38
	ldr	w11, [x0, #8]
	.loc	4 43 23 is_stmt 0               // sc.c:43:23
	ldrb	w11, [x10, x11]
.Ltmp5:
	//DEBUG_VALUE: bit_read:b <- undef
	.loc	4 0 23                          // sc.c:0:23
	mov	w12, #7
	mov	w13, #1
	b	.LBB1_3
.Ltmp6:
.LBB1_2:                                //   in Loop: Header=BB1_3 Depth=1
	//DEBUG_VALUE: bit_read:i <- $x9
	//DEBUG_VALUE: bit_read:n <- $x1
	//DEBUG_VALUE: bit_read:bio <- $x0
	//DEBUG_VALUE: bit_read:ret <- $w8
	//DEBUG_VALUE: bit_read:b <- $w11
	.loc	4 51 48 is_stmt 1               // sc.c:51:48
	ldr	w14, [x0, #12]
	.loc	4 52 29                         // sc.c:52:29
	mvn	w15, w9
.Ltmp7:
	.loc	4 44 24                         // sc.c:44:24
	add	x9, x9, #1                      // =1
.Ltmp8:
	//DEBUG_VALUE: bit_read:i <- $x9
	.loc	4 52 29                         // sc.c:52:29
	add	w15, w15, w1
.Ltmp9:
	.loc	4 44 5                          // sc.c:44:5
	cmp	x1, x9
.Ltmp10:
	.loc	4 51 53                         // sc.c:51:53
	sub	w16, w12, w14
	.loc	4 53 18                         // sc.c:53:18
	add	w14, w14, #1                    // =1
	.loc	4 51 35                         // sc.c:51:35
	lsl	w17, w13, w16
	.loc	4 51 28 is_stmt 0               // sc.c:51:28
	and	w17, w11, w17
	.loc	4 51 30                         // sc.c:51:30
	and	w17, w17, #0xff
	.loc	4 51 60                         // sc.c:51:60
	lsr	w16, w17, w16
.Ltmp11:
	//DEBUG_VALUE: c <- $w16
	.loc	4 52 19 is_stmt 1               // sc.c:52:19
	lsl	w15, w16, w15
	.loc	4 52 13 is_stmt 0               // sc.c:52:13
	orr	w8, w8, w15
.Ltmp12:
	//DEBUG_VALUE: bit_read:ret <- undef
	.loc	4 53 18 is_stmt 1               // sc.c:53:18
	str	w14, [x0, #12]
.Ltmp13:
	.loc	4 44 5                          // sc.c:44:5
	b.eq	.LBB1_5
.Ltmp14:
.LBB1_3:                                // =>This Inner Loop Header: Depth=1
	//DEBUG_VALUE: bit_read:n <- $x1
	//DEBUG_VALUE: bit_read:bio <- $x0
	//DEBUG_VALUE: bit_read:b <- $w11
	//DEBUG_VALUE: bit_read:ret <- $w8
	//DEBUG_VALUE: bit_read:i <- $x9
	.loc	4 46 18                         // sc.c:46:18
	ldr	w14, [x0, #12]
.Ltmp15:
	.loc	4 46 13 is_stmt 0               // sc.c:46:13
	cmp	w14, #8                         // =8
	b.ne	.LBB1_2
.Ltmp16:
// %bb.4:                               //   in Loop: Header=BB1_3 Depth=1
	//DEBUG_VALUE: bit_read:i <- $x9
	//DEBUG_VALUE: bit_read:n <- $x1
	//DEBUG_VALUE: bit_read:bio <- $x0
	//DEBUG_VALUE: bit_read:b <- $w11
	//DEBUG_VALUE: bit_read:ret <- $w8
	.loc	4 48 27 is_stmt 1               // sc.c:48:27
	ldr	w11, [x0, #8]
.Ltmp17:
	add	w11, w11, #1                    // =1
	str	w11, [x0, #8]
	.loc	4 48 17 is_stmt 0               // sc.c:48:17
	ldrb	w11, [x10, w11, uxtw]
.Ltmp18:
	//DEBUG_VALUE: bit_read:b <- undef
	.loc	4 49 23 is_stmt 1               // sc.c:49:23
	str	wzr, [x0, #12]
	b	.LBB1_2
.Ltmp19:
.LBB1_5:
	//DEBUG_VALUE: bit_read:i <- $x9
	//DEBUG_VALUE: bit_read:n <- $x1
	//DEBUG_VALUE: bit_read:bio <- $x0
	//DEBUG_VALUE: bit_read:b <- $w11
	//DEBUG_VALUE: bit_read:ret <- $w8
	.loc	4 55 5                          // sc.c:55:5
	and	w0, w8, #0xff
.Ltmp20:
	//DEBUG_VALUE: bit_read:bio <- [DW_OP_LLVM_entry_value 1] $x0
	ret
.Ltmp21:
.LBB1_6:
	//DEBUG_VALUE: bit_read:n <- $x1
	//DEBUG_VALUE: bit_read:bio <- $x0
	//DEBUG_VALUE: bit_read:i <- 0
	//DEBUG_VALUE: bit_read:ret <- 0
	//DEBUG_VALUE: bit_read:ret <- $wzr
	and	w0, wzr, #0xff
.Ltmp22:
	//DEBUG_VALUE: bit_read:bio <- [DW_OP_LLVM_entry_value 1] $x0
	ret
.Ltmp23:
.Lfunc_end1:
	.size	bit_read, .Lfunc_end1-bit_read
	.cfi_endproc
                                        // -- End function
	.globl	bit_write                       // -- Begin function bit_write
	.p2align	2
	.type	bit_write,@function
bit_write:                              // @bit_write
.Lfunc_begin2:
	.loc	4 59 0                          // sc.c:59:0
	.cfi_startproc
// %bb.0:
	//DEBUG_VALUE: bit_write:bio <- $x0
	//DEBUG_VALUE: bit_write:bio <- $x0
	//DEBUG_VALUE: bit_write:data <- $w1
	//DEBUG_VALUE: bit_write:data <- undef
	//DEBUG_VALUE: bit_write:n <- $x2
	//DEBUG_VALUE: bit_write:n <- $x2
	.loc	4 61 28 prologue_end            // sc.c:61:28
	ldr	x8, [x0]
	.loc	4 61 38 is_stmt 0               // sc.c:61:38
	ldr	w9, [x0, #8]
	.loc	4 61 23                         // sc.c:61:23
	ldrb	w8, [x8, x9]
.Ltmp24:
	//DEBUG_VALUE: bit_write:i <- 0
	//DEBUG_VALUE: bit_write:b <- undef
	//DEBUG_VALUE: bit_write:data <- $w1
	.loc	4 62 5 is_stmt 1                // sc.c:62:5
	cbz	x2, .LBB2_5
.Ltmp25:
// %bb.1:
	//DEBUG_VALUE: bit_write:n <- $x2
	//DEBUG_VALUE: bit_write:bio <- $x0
	//DEBUG_VALUE: bit_write:data <- $w1
	//DEBUG_VALUE: bit_write:i <- 0
	//DEBUG_VALUE: bit_write:data <- $w1
	.loc	4 0 5 is_stmt 0                 // sc.c:0:5
	mov	x9, xzr
	.loc	4 62 5                          // sc.c:62:5
	neg	x10, x2
	mov	w11, #1
	mov	w12, #7
	b	.LBB2_3
.Ltmp26:
.LBB2_2:                                //   in Loop: Header=BB2_3 Depth=1
	//DEBUG_VALUE: bit_write:n <- $x2
	//DEBUG_VALUE: bit_write:bio <- $x0
	//DEBUG_VALUE: bit_write:data <- $w1
	//DEBUG_VALUE: bit_write:b <- $w8
	.loc	4 70 38 is_stmt 1               // sc.c:70:38
	add	w13, w9, #7                     // =7
	.loc	4 71 30                         // sc.c:71:30
	ldr	w14, [x0, #12]
.Ltmp27:
	.loc	4 62 19                         // sc.c:62:19
	sub	x9, x9, #1                      // =1
.Ltmp28:
	.loc	4 70 38                         // sc.c:70:38
	lsl	w15, w11, w13
.Ltmp29:
	.loc	4 62 5                          // sc.c:62:5
	cmp	x10, x9
.Ltmp30:
	.loc	4 70 33                         // sc.c:70:33
	and	w15, w15, w1
	.loc	4 70 55 is_stmt 0               // sc.c:70:55
	lsr	w13, w15, w13
.Ltmp31:
	//DEBUG_VALUE: c <- $w13
	.loc	4 71 35 is_stmt 1               // sc.c:71:35
	sub	w15, w12, w14
	.loc	4 72 18                         // sc.c:72:18
	add	w14, w14, #1                    // =1
	.loc	4 71 17                         // sc.c:71:17
	lsl	w13, w13, w15
.Ltmp32:
	.loc	4 71 11 is_stmt 0               // sc.c:71:11
	orr	w8, w8, w13
.Ltmp33:
	//DEBUG_VALUE: bit_write:b <- undef
	.loc	4 72 18 is_stmt 1               // sc.c:72:18
	str	w14, [x0, #12]
.Ltmp34:
	//DEBUG_VALUE: bit_write:i <- [DW_OP_plus_uconst 1, DW_OP_stack_value] undef
	.loc	4 62 5                          // sc.c:62:5
	b.eq	.LBB2_5
.Ltmp35:
.LBB2_3:                                // =>This Inner Loop Header: Depth=1
	//DEBUG_VALUE: bit_write:n <- $x2
	//DEBUG_VALUE: bit_write:bio <- $x0
	//DEBUG_VALUE: bit_write:data <- $w1
	//DEBUG_VALUE: bit_write:b <- $w8
	//DEBUG_VALUE: bit_write:i <- undef
	.loc	4 64 18                         // sc.c:64:18
	ldr	w13, [x0, #12]
.Ltmp36:
	.loc	4 64 13 is_stmt 0               // sc.c:64:13
	cmp	w13, #8                         // =8
	b.ne	.LBB2_2
.Ltmp37:
// %bb.4:                               //   in Loop: Header=BB2_3 Depth=1
	//DEBUG_VALUE: bit_write:n <- $x2
	//DEBUG_VALUE: bit_write:bio <- $x0
	//DEBUG_VALUE: bit_write:b <- $w8
	//DEBUG_VALUE: bit_write:data <- $w1
	.loc	4 66 18 is_stmt 1               // sc.c:66:18
	ldr	x13, [x0]
	.loc	4 66 28 is_stmt 0               // sc.c:66:28
	ldr	w14, [x0, #8]
	.loc	4 66 34                         // sc.c:66:34
	strb	w8, [x13, x14]
	.loc	4 67 27 is_stmt 1               // sc.c:67:27
	ldr	w8, [x0, #8]
.Ltmp38:
	.loc	4 67 22 is_stmt 0               // sc.c:67:22
	ldr	x13, [x0]
	.loc	4 67 27                         // sc.c:67:27
	add	w8, w8, #1                      // =1
	str	w8, [x0, #8]
	.loc	4 67 17                         // sc.c:67:17
	ldrb	w8, [x13, w8, uxtw]
.Ltmp39:
	//DEBUG_VALUE: bit_write:b <- undef
	.loc	4 68 23 is_stmt 1               // sc.c:68:23
	str	wzr, [x0, #12]
	b	.LBB2_2
.Ltmp40:
.LBB2_5:
	//DEBUG_VALUE: bit_write:n <- $x2
	//DEBUG_VALUE: bit_write:bio <- $x0
	//DEBUG_VALUE: bit_write:data <- $w1
	//DEBUG_VALUE: bit_write:b <- $w8
	.loc	4 74 10                         // sc.c:74:10
	ldr	x9, [x0]
	.loc	4 74 20 is_stmt 0               // sc.c:74:20
	ldr	w10, [x0, #8]
	.loc	4 74 26                         // sc.c:74:26
	strb	w8, [x9, x10]
	.loc	4 75 1 is_stmt 1                // sc.c:75:1
	ret
.Ltmp41:
.Lfunc_end2:
	.size	bit_write, .Lfunc_end2-bit_write
	.cfi_endproc
                                        // -- End function
	.globl	_find_char                      // -- Begin function _find_char
	.p2align	2
	.type	_find_char,@function
_find_char:                             // @_find_char
.Lfunc_begin3:
	.loc	4 78 0                          // sc.c:78:0
	.cfi_startproc
// %bb.0:
	//DEBUG_VALUE: _find_char:s <- $x0
	//DEBUG_VALUE: _find_char:s <- $x0
	//DEBUG_VALUE: _find_char:c <- $w1
	//DEBUG_VALUE: _find_char:c <- $w1
	//DEBUG_VALUE: _find_char:n <- $x2
	//DEBUG_VALUE: _find_char:n <- $x2
	//DEBUG_VALUE: _find_char:p <- $x0
	//DEBUG_VALUE: _find_char:p <- $x0
	//DEBUG_VALUE: _find_char:i <- 0
	.loc	4 81 5 prologue_end             // sc.c:81:5
	cbz	x2, .LBB3_3
.Ltmp42:
.LBB3_1:                                // =>This Inner Loop Header: Depth=1
	//DEBUG_VALUE: _find_char:c <- $w1
	//DEBUG_VALUE: _find_char:i <- undef
	.loc	4 82 13                         // sc.c:82:13
	ldrb	w8, [x0]
.Ltmp43:
	//DEBUG_VALUE: _find_char:i <- [DW_OP_plus_uconst 1, DW_OP_stack_value] undef
	.loc	4 82 13 is_stmt 0               // sc.c:82:13
	cmp	w8, w1
	b.eq	.LBB3_4
.Ltmp44:
// %bb.2:                               //   in Loop: Header=BB3_1 Depth=1
	//DEBUG_VALUE: _find_char:c <- $w1
	//DEBUG_VALUE: _find_char:i <- [DW_OP_plus_uconst 1, DW_OP_stack_value] undef
	.loc	4 81 19 is_stmt 1               // sc.c:81:19
	subs	x2, x2, #1                      // =1
.Ltmp45:
	//DEBUG_VALUE: _find_char:n <- [DW_OP_LLVM_entry_value 1] $x2
	add	x0, x0, #1                      // =1
.Ltmp46:
	//DEBUG_VALUE: _find_char:s <- [DW_OP_LLVM_entry_value 1] $x0
	.loc	4 81 5 is_stmt 0                // sc.c:81:5
	b.ne	.LBB3_1
.Ltmp47:
.LBB3_3:
	//DEBUG_VALUE: _find_char:c <- $w1
	.loc	4 0 0                           // sc.c:0:0
	mov	x0, xzr
.Ltmp48:
.LBB3_4:
	//DEBUG_VALUE: _find_char:c <- $w1
	.loc	4 85 1 is_stmt 1                // sc.c:85:1
	ret
.Ltmp49:
.Lfunc_end3:
	.size	_find_char, .Lfunc_end3-_find_char
	.cfi_endproc
                                        // -- End function
	.globl	_sc_compare                     // -- Begin function _sc_compare
	.p2align	2
	.type	_sc_compare,@function
_sc_compare:                            // @_sc_compare
.Lfunc_begin4:
	.loc	4 88 0                          // sc.c:88:0
	.cfi_startproc
// %bb.0:
	//DEBUG_VALUE: _sc_compare:order <- $x0
	//DEBUG_VALUE: _sc_compare:s1 <- $x1
	//DEBUG_VALUE: _sc_compare:s2 <- $x2
	//DEBUG_VALUE: _sc_compare:n <- $x3
	//DEBUG_VALUE: _sc_compare:n <- $x3
	//DEBUG_VALUE: _sc_compare:s2 <- $x2
	//DEBUG_VALUE: _sc_compare:s1 <- $x1
	//DEBUG_VALUE: _sc_compare:order <- $x0
	stp	x30, x23, [sp, #-48]!           // 16-byte Folded Spill
	stp	x22, x21, [sp, #16]             // 16-byte Folded Spill
	stp	x20, x19, [sp, #32]             // 16-byte Folded Spill
	.cfi_def_cfa_offset 48
	.cfi_offset w19, -8
	.cfi_offset w20, -16
	.cfi_offset w21, -24
	.cfi_offset w22, -32
	.cfi_offset w23, -40
	.cfi_offset w30, -48
.Ltmp50:
	//DEBUG_VALUE: _sc_compare:i <- 0
	.loc	4 91 5 prologue_end             // sc.c:91:5
	cbz	x3, .LBB4_4
.Ltmp51:
// %bb.1:                               // %.preheader
	//DEBUG_VALUE: _sc_compare:n <- $x3
	//DEBUG_VALUE: _sc_compare:s2 <- $x2
	//DEBUG_VALUE: _sc_compare:s1 <- $x1
	//DEBUG_VALUE: _sc_compare:order <- $x0
	//DEBUG_VALUE: _sc_compare:i <- 0
	.loc	4 0 5 is_stmt 0                 // sc.c:0:5
	mov	x20, x3
.Ltmp52:
	//DEBUG_VALUE: _sc_compare:n <- $x20
	mov	x21, x0
.Ltmp53:
	//DEBUG_VALUE: _sc_compare:order <- $x21
	mov	x9, xzr
.Ltmp54:
.LBB4_2:                                // =>This Inner Loop Header: Depth=1
	//DEBUG_VALUE: _sc_compare:order <- $x21
	//DEBUG_VALUE: _sc_compare:n <- $x20
	//DEBUG_VALUE: _sc_compare:s2 <- $x2
	//DEBUG_VALUE: _sc_compare:s1 <- $x1
	//DEBUG_VALUE: _sc_compare:i <- $x9
	.loc	4 93 13 is_stmt 1               // sc.c:93:13
	ldrb	w8, [x1, x9]
	.loc	4 93 22 is_stmt 0               // sc.c:93:22
	ldrb	w23, [x2, x9]
.Ltmp55:
	//DEBUG_VALUE: _sc_compare:i <- undef
	.loc	4 93 13                         // sc.c:93:13
	subs	w19, w8, w23
	b.ne	.LBB4_5
.Ltmp56:
// %bb.3:                               //   in Loop: Header=BB4_2 Depth=1
	//DEBUG_VALUE: _sc_compare:order <- $x21
	//DEBUG_VALUE: _sc_compare:n <- $x20
	//DEBUG_VALUE: _sc_compare:s2 <- $x2
	//DEBUG_VALUE: _sc_compare:s1 <- $x1
	.loc	4 0 0                           // sc.c:0:0
	add	x9, x9, #1                      // =1
.Ltmp57:
	//DEBUG_VALUE: _sc_compare:i <- $x9
	.loc	4 91 5 is_stmt 1                // sc.c:91:5
	cmp	x20, x9
	b.ne	.LBB4_2
.Ltmp58:
.LBB4_4:
	//DEBUG_VALUE: _sc_compare:s2 <- $x2
	//DEBUG_VALUE: _sc_compare:s1 <- $x1
	.loc	4 0 0 is_stmt 0                 // sc.c:0:0
	mov	w19, wzr
	b	.LBB4_8
.Ltmp59:
.LBB4_5:
	//DEBUG_VALUE: _sc_compare:order <- $x21
	//DEBUG_VALUE: _sc_compare:n <- $x20
	//DEBUG_VALUE: _sc_compare:s2 <- $x2
	//DEBUG_VALUE: _sc_compare:s1 <- $x1
	.loc	4 95 18 is_stmt 1               // sc.c:95:18
	mov	x0, x21
	mov	w1, w8
.Ltmp60:
	//DEBUG_VALUE: _sc_compare:s1 <- [DW_OP_LLVM_entry_value 1] $x1
	mov	x2, x20
.Ltmp61:
	//DEBUG_VALUE: _sc_compare:s2 <- [DW_OP_LLVM_entry_value 1] $x2
	bl	_find_char
.Ltmp62:
	mov	x22, x0
.Ltmp63:
	//DEBUG_VALUE: _sc_compare:p1 <- $x22
	.loc	4 96 18                         // sc.c:96:18
	mov	x0, x21
	mov	w1, w23
	mov	x2, x20
	bl	_find_char
.Ltmp64:
	//DEBUG_VALUE: _sc_compare:p2 <- $x0
	.loc	4 97 28                         // sc.c:97:28
	cbz	x22, .LBB4_8
.Ltmp65:
// %bb.6:
	//DEBUG_VALUE: _sc_compare:p1 <- $x22
	//DEBUG_VALUE: _sc_compare:order <- $x21
	//DEBUG_VALUE: _sc_compare:n <- $x20
	//DEBUG_VALUE: _sc_compare:p2 <- $x0
	//DEBUG_VALUE: _sc_compare:s2 <- [DW_OP_LLVM_entry_value 1] $x2
	//DEBUG_VALUE: _sc_compare:s1 <- [DW_OP_LLVM_entry_value 1] $x1
	cbz	x0, .LBB4_8
.Ltmp66:
// %bb.7:
	//DEBUG_VALUE: _sc_compare:p1 <- $x22
	//DEBUG_VALUE: _sc_compare:order <- $x21
	//DEBUG_VALUE: _sc_compare:n <- $x20
	//DEBUG_VALUE: _sc_compare:p2 <- $x0
	//DEBUG_VALUE: _sc_compare:s2 <- [DW_OP_LLVM_entry_value 1] $x2
	//DEBUG_VALUE: _sc_compare:s1 <- [DW_OP_LLVM_entry_value 1] $x1
	.loc	4 99 23                         // sc.c:99:23
	sub	w19, w22, w0
.Ltmp67:
.LBB4_8:
	.loc	4 103 1                         // sc.c:103:1
	mov	w0, w19
	ldp	x20, x19, [sp, #32]             // 16-byte Folded Reload
	ldp	x22, x21, [sp, #16]             // 16-byte Folded Reload
	ldp	x30, x23, [sp], #48             // 16-byte Folded Reload
	ret
.Ltmp68:
.Lfunc_end4:
	.size	_sc_compare, .Lfunc_end4-_sc_compare
	.cfi_endproc
                                        // -- End function
	.globl	sc_new                          // -- Begin function sc_new
	.p2align	2
	.type	sc_new,@function
sc_new:                                 // @sc_new
.Lfunc_begin5:
	.loc	4 106 0                         // sc.c:106:0
	.cfi_startproc
// %bb.0:
	//DEBUG_VALUE: sc_new:key <- $x0
	stp	x30, x19, [sp, #-16]!           // 16-byte Folded Spill
	.cfi_def_cfa_offset 16
	.cfi_offset w19, -8
	.cfi_offset w30, -16
	mov	x19, x0
.Ltmp69:
	//DEBUG_VALUE: sc_new:key <- $x19
	.loc	4 107 33 prologue_end           // sc.c:107:33
	mov	w0, #120
	bl	malloc
.Ltmp70:
	//DEBUG_VALUE: sc_new:sc <- $x0
	.loc	4 109 5                         // sc.c:109:5
	stur	xzr, [x0, #95]
	stur	xzr, [x0, #103]
	stur	xzr, [x0, #111]
	strb	wzr, [x0, #119]
	ldp	x8, x9, [x19, #64]
	ldr	x10, [x19, #80]
	ldur	x11, [x19, #87]
	stp	x8, x9, [x0, #64]
	str	x10, [x0, #80]
	stur	x11, [x0, #87]
	ldp	x8, x9, [x19, #32]
	ldp	x10, x11, [x19, #48]
	stp	x8, x9, [x0, #32]
	stp	x10, x11, [x0, #48]
	ldp	x9, x8, [x19]
	ldp	x11, x10, [x19, #16]
	.loc	4 110 13                        // sc.c:110:13
	adrp	x12, _sc_compare
	add	x12, x12, :lo12:_sc_compare
	.loc	4 109 5                         // sc.c:109:5
	stp	x9, x8, [x0]
	stp	x11, x10, [x0, #16]
	.loc	4 110 13                        // sc.c:110:13
	str	x12, [x0, #112]
	.loc	4 111 5                         // sc.c:111:5
	ldp	x30, x19, [sp], #16             // 16-byte Folded Reload
.Ltmp71:
	//DEBUG_VALUE: sc_new:key <- [DW_OP_LLVM_entry_value 1] $x0
	ret
.Ltmp72:
.Lfunc_end5:
	.size	sc_new, .Lfunc_end5-sc_new
	.cfi_endproc
                                        // -- End function
	.globl	sc_scompress                    // -- Begin function sc_scompress
	.p2align	2
	.type	sc_scompress,@function
sc_scompress:                           // @sc_scompress
.Lfunc_begin6:
	.loc	4 115 0                         // sc.c:115:0
	.cfi_startproc
// %bb.0:
	//DEBUG_VALUE: sc_scompress:sc <- $x0
	//DEBUG_VALUE: sc_scompress:out <- $x1
	//DEBUG_VALUE: sc_scompress:outlen <- $x2
	str	x30, [sp, #-64]!                // 8-byte Folded Spill
	stp	x24, x23, [sp, #16]             // 16-byte Folded Spill
	stp	x22, x21, [sp, #32]             // 16-byte Folded Spill
	stp	x20, x19, [sp, #48]             // 16-byte Folded Spill
	.cfi_def_cfa_offset 64
	.cfi_offset w19, -8
	.cfi_offset w20, -16
	.cfi_offset w21, -24
	.cfi_offset w22, -32
	.cfi_offset w23, -40
	.cfi_offset w24, -48
	.cfi_offset w30, -64
	mov	x20, x0
	mov	w0, #-1
.Ltmp73:
	//DEBUG_VALUE: sc_scompress:sc <- [DW_OP_LLVM_entry_value 1] $x0
	//DEBUG_VALUE: sc_scompress:outlen <- $x2
	//DEBUG_VALUE: sc_scompress:out <- $x1
	//DEBUG_VALUE: sc_scompress:sc <- $x20
	.loc	4 116 13 prologue_end           // sc.c:116:13
	cbz	x20, .LBB6_6
.Ltmp74:
// %bb.1:
	//DEBUG_VALUE: sc_scompress:sc <- $x20
	//DEBUG_VALUE: sc_scompress:outlen <- $x2
	//DEBUG_VALUE: sc_scompress:out <- $x1
	//DEBUG_VALUE: sc_scompress:outlen <- $x2
	.loc	4 0 13 is_stmt 0                // sc.c:0:13
	mov	x19, x1
.Ltmp75:
	//DEBUG_VALUE: sc_scompress:out <- $x19
	.loc	4 116 13                        // sc.c:116:13
	cbz	x1, .LBB6_6
.Ltmp76:
// %bb.2:
	//DEBUG_VALUE: sc_scompress:sc <- $x20
	//DEBUG_VALUE: sc_scompress:out <- $x19
	//DEBUG_VALUE: sc_scompress:outlen <- $x2
	.loc	4 0 13                          // sc.c:0:13
	mov	x21, x2
.Ltmp77:
	//DEBUG_VALUE: sc_scompress:outlen <- $x21
	.loc	4 116 13                        // sc.c:116:13
	cbz	x2, .LBB6_6
.Ltmp78:
// %bb.3:
	//DEBUG_VALUE: sc_scompress:outlen <- $x21
	//DEBUG_VALUE: sc_scompress:sc <- $x20
	//DEBUG_VALUE: sc_scompress:out <- $x19
	.loc	4 119 26 is_stmt 1              // sc.c:119:26
	ldp	x24, x23, [x20, #96]
.Ltmp79:
	//DEBUG_VALUE: sc_scompress:buf <- 0
	//DEBUG_VALUE: sc_scompress:old_len <- $x23
	//DEBUG_VALUE: sc_scompress:old <- undef
	.loc	4 121 11                        // sc.c:121:11
	mov	x0, x20
	mov	w1, wzr
	mov	x2, x21
	bl	sc_bwt
.Ltmp80:
	//DEBUG_VALUE: sc_scompress:buf <- $x0
	.loc	4 122 9                         // sc.c:122:9
	cbz	x0, .LBB6_5
.Ltmp81:
// %bb.4:
	//DEBUG_VALUE: sc_scompress:old_len <- $x23
	//DEBUG_VALUE: sc_scompress:outlen <- $x21
	//DEBUG_VALUE: sc_scompress:sc <- $x20
	//DEBUG_VALUE: sc_scompress:out <- $x19
	//DEBUG_VALUE: sc_scompress:buf <- $x0
	.loc	4 0 0 is_stmt 0                 // sc.c:0:0
	mov	x22, x0
.Ltmp82:
	//DEBUG_VALUE: sc_scompress:buf <- $x22
	.loc	4 124 14 is_stmt 1              // sc.c:124:14
	str	x0, [x20, #96]
	.loc	4 125 20                        // sc.c:125:20
	ldr	x8, [x21]
	.loc	4 125 18 is_stmt 0              // sc.c:125:18
	str	x8, [x20, #104]
	.loc	4 126 12 is_stmt 1              // sc.c:126:12
	mov	x0, x20
	mov	w1, wzr
	mov	x2, x21
	bl	sc_mtf
.Ltmp83:
	.loc	4 126 10 is_stmt 0              // sc.c:126:10
	str	x0, [x19]
	.loc	4 127 5 is_stmt 1               // sc.c:127:5
	mov	x0, x22
	bl	free
.Ltmp84:
	.loc	4 128 14                        // sc.c:128:14
	stp	x24, x23, [x20, #96]
.Ltmp85:
	.loc	4 130 10                        // sc.c:130:10
	ldr	x8, [x19]
.Ltmp86:
	.loc	4 0 0 is_stmt 0                 // sc.c:0:0
	cmp	x8, #0                          // =0
	csetm	w0, eq
	b	.LBB6_6
.Ltmp87:
.LBB6_5:
	//DEBUG_VALUE: sc_scompress:old_len <- $x23
	//DEBUG_VALUE: sc_scompress:outlen <- $x21
	//DEBUG_VALUE: sc_scompress:sc <- $x20
	//DEBUG_VALUE: sc_scompress:out <- $x19
	//DEBUG_VALUE: sc_scompress:buf <- $x0
	mov	w0, #-1
.Ltmp88:
.LBB6_6:
	//DEBUG_VALUE: sc_scompress:sc <- $x20
	.loc	4 133 1 is_stmt 1               // sc.c:133:1
	ldp	x20, x19, [sp, #48]             // 16-byte Folded Reload
.Ltmp89:
	ldp	x22, x21, [sp, #32]             // 16-byte Folded Reload
	ldp	x24, x23, [sp, #16]             // 16-byte Folded Reload
	ldr	x30, [sp], #64                  // 8-byte Folded Reload
	ret
.Ltmp90:
.Lfunc_end6:
	.size	sc_scompress, .Lfunc_end6-sc_scompress
	.cfi_endproc
	.file	5 "/usr/include/stdlib.h"
                                        // -- End function
	.globl	sc_bwt                          // -- Begin function sc_bwt
	.p2align	2
	.type	sc_bwt,@function
sc_bwt:                                 // @sc_bwt
.Lfunc_begin7:
	.loc	4 237 0                         // sc.c:237:0
	.cfi_startproc
// %bb.0:
	//DEBUG_VALUE: sc_bwt:sc <- $x0
	//DEBUG_VALUE: sc_bwt:op <- $w1
	//DEBUG_VALUE: sc_bwt:outlen <- $x2
	//DEBUG_VALUE: sc_bwt:outlen <- $x2
	//DEBUG_VALUE: sc_bwt:sc <- $x0
	stp	x29, x30, [sp, #-96]!           // 16-byte Folded Spill
	stp	x28, x27, [sp, #16]             // 16-byte Folded Spill
	stp	x26, x25, [sp, #32]             // 16-byte Folded Spill
	stp	x24, x23, [sp, #48]             // 16-byte Folded Spill
	stp	x22, x21, [sp, #64]             // 16-byte Folded Spill
	stp	x20, x19, [sp, #80]             // 16-byte Folded Spill
	sub	sp, sp, #544                    // =544
	.cfi_def_cfa_offset 640
	.cfi_offset w19, -8
	.cfi_offset w20, -16
	.cfi_offset w21, -24
	.cfi_offset w22, -32
	.cfi_offset w23, -40
	.cfi_offset w24, -48
	.cfi_offset w25, -56
	.cfi_offset w26, -64
	.cfi_offset w27, -72
	.cfi_offset w28, -80
	.cfi_offset w30, -88
	.cfi_offset w29, -96
.Ltmp91:
	.loc	4 238 13 prologue_end           // sc.c:238:13
	ldr	x8, [x0, #104]
.Ltmp92:
	.loc	4 238 9 is_stmt 0               // sc.c:238:9
	cmp	x8, #1, lsl #12                 // =4096
	//DEBUG_VALUE: sc_bwt:op <- $w1
	b.ls	.LBB7_2
.Ltmp93:
// %bb.1:
	//DEBUG_VALUE: sc_bwt:outlen <- $x2
	//DEBUG_VALUE: sc_bwt:sc <- $x0
	//DEBUG_VALUE: sc_bwt:op <- $w1
	.loc	4 0 0                           // sc.c:0:0
	mov	x29, xzr
	b	.LBB7_36
.Ltmp94:
.LBB7_2:
	//DEBUG_VALUE: sc_bwt:outlen <- $x2
	//DEBUG_VALUE: sc_bwt:sc <- $x0
	//DEBUG_VALUE: sc_bwt:op <- $w1
	mov	x22, x2
.Ltmp95:
	//DEBUG_VALUE: sc_bwt:outlen <- $x22
	mov	x21, x0
.Ltmp96:
	//DEBUG_VALUE: sc_bwt:sc <- $x21
	mov	w23, w1
.Ltmp97:
	//DEBUG_VALUE: sc_bwt:op <- $w23
	//DEBUG_VALUE: sc_bwt:size <- 0
	//DEBUG_VALUE: sc_bwt:to_copy <- 0
	//DEBUG_VALUE: sc_bwt:num_blocks <- 0
	.loc	4 245 32 is_stmt 1              // sc.c:245:32
	lsr	x9, x8, #9
	.loc	4 245 49 is_stmt 0              // sc.c:245:49
	tst	x8, #0x1ff
	.loc	4 245 46                        // sc.c:245:46
	cinc	x9, x9, ne
.Ltmp98:
	//DEBUG_VALUE: sc_bwt:num_blocks <- $x9
	.loc	4 246 42 is_stmt 1              // sc.c:246:42
	add	x24, x8, x9, lsl #1
	.loc	4 246 13 is_stmt 0              // sc.c:246:13
	str	x24, [x2]
.Ltmp99:
	//DEBUG_VALUE: sc_bwt:num_blocks <- 0
	.loc	4 248 33 is_stmt 1              // sc.c:248:33
	mov	w0, #4096
	bl	malloc
.Ltmp100:
	mov	x20, x0
.Ltmp101:
	//DEBUG_VALUE: sc_bwt:rot_table <- $x20
	.loc	4 249 26                        // sc.c:249:26
	mov	x0, x24
	bl	malloc
.Ltmp102:
	mov	x29, x0
.Ltmp103:
	//DEBUG_VALUE: sc_bwt:out <- $fp
	.loc	4 250 5                         // sc.c:250:5
	mov	w1, wzr
	mov	x2, x24
	bl	memset
.Ltmp104:
	//DEBUG_VALUE: sc_bwt:i <- 0
	.loc	4 0 5 is_stmt 0                 // sc.c:0:5
	mov	x19, xzr
.Ltmp105:
.LBB7_3:                                // =>This Inner Loop Header: Depth=1
	//DEBUG_VALUE: sc_bwt:outlen <- $x22
	//DEBUG_VALUE: sc_bwt:sc <- $x21
	//DEBUG_VALUE: sc_bwt:rot_table <- $x20
	//DEBUG_VALUE: sc_bwt:op <- $w23
	//DEBUG_VALUE: sc_bwt:out <- $fp
	//DEBUG_VALUE: sc_bwt:num_blocks <- 0
	//DEBUG_VALUE: sc_bwt:to_copy <- 0
	//DEBUG_VALUE: sc_bwt:size <- 0
	//DEBUG_VALUE: sc_bwt:i <- undef
	.loc	4 254 24 is_stmt 1              // sc.c:254:24
	mov	w0, #512
	bl	malloc
.Ltmp106:
	.loc	4 254 22 is_stmt 0              // sc.c:254:22
	str	x0, [x20, x19]
	.loc	4 255 9 is_stmt 1               // sc.c:255:9
	mov	w2, #512
	mov	w1, wzr
	bl	memset
.Ltmp107:
	//DEBUG_VALUE: sc_bwt:i <- [DW_OP_plus_uconst 1, DW_OP_stack_value] undef
	.loc	4 252 19                        // sc.c:252:19
	add	x19, x19, #8                    // =8
.Ltmp108:
	.loc	4 252 5 is_stmt 0               // sc.c:252:5
	cmp	x19, #1, lsl #12                // =4096
	b.ne	.LBB7_3
.Ltmp109:
// %bb.4:
	//DEBUG_VALUE: sc_bwt:outlen <- $x22
	//DEBUG_VALUE: sc_bwt:sc <- $x21
	//DEBUG_VALUE: sc_bwt:rot_table <- $x20
	//DEBUG_VALUE: sc_bwt:op <- $w23
	//DEBUG_VALUE: sc_bwt:out <- $fp
	//DEBUG_VALUE: sc_bwt:num_blocks <- 0
	//DEBUG_VALUE: sc_bwt:to_copy <- 0
	//DEBUG_VALUE: sc_bwt:size <- 0
	.loc	4 258 9 is_stmt 1               // sc.c:258:9
	cbz	w23, .LBB7_18
.Ltmp110:
// %bb.5:
	//DEBUG_VALUE: sc_bwt:outlen <- $x22
	//DEBUG_VALUE: sc_bwt:sc <- $x21
	//DEBUG_VALUE: sc_bwt:rot_table <- $x20
	//DEBUG_VALUE: sc_bwt:op <- $w23
	//DEBUG_VALUE: sc_bwt:out <- $fp
	//DEBUG_VALUE: sc_bwt:num_blocks <- 0
	//DEBUG_VALUE: sc_bwt:to_copy <- 0
	//DEBUG_VALUE: sc_bwt:size <- 0
	.loc	4 0 9 is_stmt 0                 // sc.c:0:9
	str	x22, [sp, #16]                  // 8-byte Folded Spill
.Ltmp111:
	//DEBUG_VALUE: sc_bwt:outlen <- [DW_OP_plus_uconst 16] [$sp+0]
	.loc	4 289 17 is_stmt 1              // sc.c:289:17
	str	xzr, [x22]
	//DEBUG_VALUE: sc_bwt:num_blocks <- 0
	//DEBUG_VALUE: sc_bwt:size <- 0
.Ltmp112:
	.loc	4 292 29                        // sc.c:292:29
	ldr	x8, [x21, #104]
.Ltmp113:
	.loc	4 292 17 is_stmt 0              // sc.c:292:17
	cbz	x8, .LBB7_33
.Ltmp114:
// %bb.6:
	//DEBUG_VALUE: sc_bwt:outlen <- [DW_OP_plus_uconst 16] [$sp+0]
	//DEBUG_VALUE: sc_bwt:sc <- $x21
	//DEBUG_VALUE: sc_bwt:rot_table <- $x20
	//DEBUG_VALUE: sc_bwt:op <- $w23
	//DEBUG_VALUE: sc_bwt:out <- $fp
	//DEBUG_VALUE: sc_bwt:num_blocks <- 0
	//DEBUG_VALUE: sc_bwt:to_copy <- 0
	//DEBUG_VALUE: sc_bwt:size <- 0
	.loc	4 0 17                          // sc.c:0:17
	mov	x25, xzr
	mov	x28, xzr
	add	x27, sp, #32                    // =32
	b	.LBB7_8
.Ltmp115:
.LBB7_7:                                //   in Loop: Header=BB7_8 Depth=1
	//DEBUG_VALUE: sc_bwt:outlen <- [DW_OP_plus_uconst 16] [$sp+0]
	//DEBUG_VALUE: sc_bwt:to_copy <- $x22
	//DEBUG_VALUE: sc_bwt:sc <- $x21
	//DEBUG_VALUE: sc_bwt:rot_table <- $x20
	//DEBUG_VALUE: sc_bwt:size <- $fp
	.loc	4 292 29                        // sc.c:292:29
	ldr	x8, [x21, #104]
.Ltmp116:
	.loc	4 319 18 is_stmt 1              // sc.c:319:18
	add	x28, x22, x29
.Ltmp117:
	//DEBUG_VALUE: sc_bwt:num_blocks <- $x25
	//DEBUG_VALUE: sc_bwt:size <- $x28
	.loc	4 292 17                        // sc.c:292:17
	cmp	x28, x8
	.loc	4 0 0 is_stmt 0                 // sc.c:0:0
	add	x25, x25, #1                    // =1
.Ltmp118:
	//DEBUG_VALUE: sc_bwt:num_blocks <- $x25
	mov	x29, x19
	.loc	4 292 17                        // sc.c:292:17
	b.hs	.LBB7_33
.Ltmp119:
.LBB7_8:                                // =>This Loop Header: Depth=1
                                        //     Child Loop BB7_9 Depth 2
                                        //     Child Loop BB7_13 Depth 2
                                        //       Child Loop BB7_15 Depth 3
	//DEBUG_VALUE: sc_bwt:outlen <- [DW_OP_plus_uconst 16] [$sp+0]
	//DEBUG_VALUE: sc_bwt:sc <- $x21
	//DEBUG_VALUE: sc_bwt:rot_table <- $x20
	//DEBUG_VALUE: sc_bwt:size <- $x28
	//DEBUG_VALUE: sc_bwt:num_blocks <- $x25
	.loc	4 0 17                          // sc.c:0:17
	mov	x19, x29
	.loc	4 295 44 is_stmt 1              // sc.c:295:44
	sub	x9, x29, x25, lsl #1
	str	x9, [sp, #24]                   // 8-byte Folded Spill
	ldr	x9, [x21, #96]
	.loc	4 296 18                        // sc.c:296:18
	add	x29, x28, #2                    // =2
.Ltmp120:
	//DEBUG_VALUE: sc_bwt:size <- $fp
	.loc	4 0 18 is_stmt 0                // sc.c:0:18
	ldr	x11, [sp, #16]                  // 8-byte Folded Reload
	.loc	4 298 21 is_stmt 1              // sc.c:298:21
	ldr	x10, [x11]
	.loc	4 297 36                        // sc.c:297:36
	sub	x8, x8, x29
	.loc	4 297 23 is_stmt 0              // sc.c:297:23
	cmp	x8, #512                        // =512
	mov	w12, #512
	csel	x22, x8, x12, lo
.Ltmp121:
	//DEBUG_VALUE: sc_bwt:to_copy <- $x22
	.loc	4 295 20 is_stmt 1              // sc.c:295:20
	ldrh	w26, [x9, x28]
.Ltmp122:
	//DEBUG_VALUE: sc_bwt:oidx <- undef
	.loc	4 298 21                        // sc.c:298:21
	add	x8, x10, x22
	.loc	4 304 28                        // sc.c:304:28
	add	x24, x9, x29
	.loc	4 304 13 is_stmt 0              // sc.c:304:13
	sub	x9, x12, x22
	.loc	4 298 21 is_stmt 1              // sc.c:298:21
	str	x8, [x11]
	.loc	4 304 13                        // sc.c:304:13
	cmp	x22, #511                       // =511
	csel	x2, xzr, x9, hi
	add	x0, x27, x22
	mov	w1, wzr
	bl	memset
.Ltmp123:
	add	x0, sp, #32                     // =32
	mov	x1, x24
	mov	x2, x22
	bl	memcpy
.Ltmp124:
	//DEBUG_VALUE: sc_bwt:i <- 0
	.loc	4 0 13 is_stmt 0                // sc.c:0:13
	mov	x23, xzr
.Ltmp125:
	//DEBUG_VALUE: sc_bwt:op <- [DW_OP_LLVM_entry_value 1] $w1
.LBB7_9:                                //   Parent Loop BB7_8 Depth=1
                                        // =>  This Inner Loop Header: Depth=2
	//DEBUG_VALUE: sc_bwt:outlen <- [DW_OP_plus_uconst 16] [$sp+0]
	//DEBUG_VALUE: sc_bwt:num_blocks <- $x25
	//DEBUG_VALUE: sc_bwt:to_copy <- $x22
	//DEBUG_VALUE: sc_bwt:sc <- $x21
	//DEBUG_VALUE: sc_bwt:rot_table <- $x20
	//DEBUG_VALUE: sc_bwt:size <- $fp
	//DEBUG_VALUE: sc_bwt:i <- undef
	.loc	4 306 24 is_stmt 1              // sc.c:306:24
	ldr	x0, [x20, x23]
	.loc	4 306 17 is_stmt 0              // sc.c:306:17
	mov	w2, #512
	mov	w1, wzr
	bl	memset
.Ltmp126:
	//DEBUG_VALUE: sc_bwt:i <- [DW_OP_plus_uconst 1, DW_OP_stack_value] undef
	.loc	4 305 27 is_stmt 1              // sc.c:305:27
	add	x23, x23, #8                    // =8
.Ltmp127:
	.loc	4 305 13 is_stmt 0              // sc.c:305:13
	cmp	x23, #1, lsl #12                // =4096
	b.ne	.LBB7_9
.Ltmp128:
// %bb.10:                              //   in Loop: Header=BB7_8 Depth=1
	//DEBUG_VALUE: sc_bwt:outlen <- [DW_OP_plus_uconst 16] [$sp+0]
	//DEBUG_VALUE: sc_bwt:num_blocks <- $x25
	//DEBUG_VALUE: sc_bwt:to_copy <- $x22
	//DEBUG_VALUE: sc_bwt:sc <- $x21
	//DEBUG_VALUE: sc_bwt:rot_table <- $x20
	//DEBUG_VALUE: sc_bwt:size <- $fp
	//DEBUG_VALUE: sc_bwt:i <- [DW_OP_constu 1, DW_OP_minus, DW_OP_stack_value] $w22
	.loc	4 308 13 is_stmt 1              // sc.c:308:13
	cbz	w22, .LBB7_16
.Ltmp129:
// %bb.11:                              //   in Loop: Header=BB7_8 Depth=1
	//DEBUG_VALUE: sc_bwt:outlen <- [DW_OP_plus_uconst 16] [$sp+0]
	//DEBUG_VALUE: sc_bwt:num_blocks <- $x25
	//DEBUG_VALUE: sc_bwt:to_copy <- $x22
	//DEBUG_VALUE: sc_bwt:sc <- $x21
	//DEBUG_VALUE: sc_bwt:rot_table <- $x20
	//DEBUG_VALUE: sc_bwt:i <- [DW_OP_constu 1, DW_OP_minus, DW_OP_stack_value] $w22
	//DEBUG_VALUE: sc_bwt:size <- $fp
	.loc	4 0 0 is_stmt 0                 // sc.c:0:0
	sub	w24, w22, #1                    // =1
.Ltmp130:
	//DEBUG_VALUE: sc_bwt:i <- $w24
	mov	x23, x22
	b	.LBB7_13
.Ltmp131:
.LBB7_12:                               //   in Loop: Header=BB7_13 Depth=2
	//DEBUG_VALUE: sc_bwt:outlen <- [DW_OP_plus_uconst 16] [$sp+0]
	//DEBUG_VALUE: sc_bwt:num_blocks <- $x25
	//DEBUG_VALUE: sc_bwt:to_copy <- $x22
	//DEBUG_VALUE: sc_bwt:sc <- $x21
	//DEBUG_VALUE: sc_bwt:rot_table <- $x20
	//DEBUG_VALUE: sc_bwt:i <- $w24
	//DEBUG_VALUE: sc_bwt:size <- $fp
	.loc	4 313 17 is_stmt 1              // sc.c:313:17
	mov	x0, x20
	mov	w1, w22
	mov	x2, x21
	bl	_sort
.Ltmp132:
	//DEBUG_VALUE: sc_bwt:i <- [DW_OP_constu 1, DW_OP_minus, DW_OP_stack_value] $x23
	.loc	4 0 0 is_stmt 0                 // sc.c:0:0
	subs	w24, w24, #1                    // =1
.Ltmp133:
	//DEBUG_VALUE: sc_bwt:i <- $w24
	.loc	4 308 13 is_stmt 1              // sc.c:308:13
	b.mi	.LBB7_16
.Ltmp134:
.LBB7_13:                               //   Parent Loop BB7_8 Depth=1
                                        // =>  This Loop Header: Depth=2
                                        //       Child Loop BB7_15 Depth 3
	//DEBUG_VALUE: sc_bwt:outlen <- [DW_OP_plus_uconst 16] [$sp+0]
	//DEBUG_VALUE: sc_bwt:num_blocks <- $x25
	//DEBUG_VALUE: sc_bwt:to_copy <- $x22
	//DEBUG_VALUE: sc_bwt:sc <- $x21
	//DEBUG_VALUE: sc_bwt:rot_table <- $x20
	//DEBUG_VALUE: sc_bwt:i <- $w24
	//DEBUG_VALUE: sc_bwt:size <- $fp
	.loc	4 0 0 is_stmt 0                 // sc.c:0:0
	sub	x23, x23, #1                    // =1
.Ltmp135:
	//DEBUG_VALUE: sc_bwt:j <- 0
	.loc	4 310 17 is_stmt 1              // sc.c:310:17
	cbz	x22, .LBB7_12
.Ltmp136:
// %bb.14:                              // %.preheader5
                                        //   in Loop: Header=BB7_13 Depth=2
	//DEBUG_VALUE: sc_bwt:outlen <- [DW_OP_plus_uconst 16] [$sp+0]
	//DEBUG_VALUE: sc_bwt:num_blocks <- $x25
	//DEBUG_VALUE: sc_bwt:to_copy <- $x22
	//DEBUG_VALUE: sc_bwt:sc <- $x21
	//DEBUG_VALUE: sc_bwt:rot_table <- $x20
	//DEBUG_VALUE: sc_bwt:i <- $w24
	//DEBUG_VALUE: sc_bwt:size <- $fp
	//DEBUG_VALUE: sc_bwt:j <- 0
	.loc	4 0 17 is_stmt 0                // sc.c:0:17
	mov	x8, xzr
.Ltmp137:
.LBB7_15:                               //   Parent Loop BB7_8 Depth=1
                                        //     Parent Loop BB7_13 Depth=2
                                        // =>    This Inner Loop Header: Depth=3
	//DEBUG_VALUE: sc_bwt:outlen <- [DW_OP_plus_uconst 16] [$sp+0]
	//DEBUG_VALUE: sc_bwt:num_blocks <- $x25
	//DEBUG_VALUE: sc_bwt:to_copy <- $x22
	//DEBUG_VALUE: sc_bwt:sc <- $x21
	//DEBUG_VALUE: sc_bwt:rot_table <- $x20
	//DEBUG_VALUE: sc_bwt:i <- $w24
	//DEBUG_VALUE: sc_bwt:size <- $fp
	//DEBUG_VALUE: sc_bwt:j <- $x8
	.loc	4 311 39 is_stmt 1              // sc.c:311:39
	ldrb	w9, [x27, x8]
	.loc	4 311 21 is_stmt 0              // sc.c:311:21
	ldr	x10, [x20, x8, lsl #3]
	.loc	4 310 42 is_stmt 1              // sc.c:310:42
	add	x8, x8, #1                      // =1
.Ltmp138:
	//DEBUG_VALUE: sc_bwt:j <- $x8
	.loc	4 310 17 is_stmt 0              // sc.c:310:17
	cmp	x22, x8
.Ltmp139:
	.loc	4 311 37 is_stmt 1              // sc.c:311:37
	strb	w9, [x10, x23]
.Ltmp140:
	.loc	4 310 17                        // sc.c:310:17
	b.hi	.LBB7_15
	b	.LBB7_12
.Ltmp141:
.LBB7_16:                               //   in Loop: Header=BB7_8 Depth=1
	//DEBUG_VALUE: sc_bwt:outlen <- [DW_OP_plus_uconst 16] [$sp+0]
	//DEBUG_VALUE: sc_bwt:num_blocks <- $x25
	//DEBUG_VALUE: sc_bwt:to_copy <- $x22
	//DEBUG_VALUE: sc_bwt:sc <- $x21
	//DEBUG_VALUE: sc_bwt:rot_table <- $x20
	//DEBUG_VALUE: sc_bwt:size <- $fp
	//DEBUG_VALUE: sc_bwt:num_blocks <- undef
	//DEBUG_VALUE: sc_bwt:i <- 0
	.loc	4 317 13                        // sc.c:317:13
	cbz	x22, .LBB7_7
.Ltmp142:
// %bb.17:                              //   in Loop: Header=BB7_8 Depth=1
	//DEBUG_VALUE: sc_bwt:outlen <- [DW_OP_plus_uconst 16] [$sp+0]
	//DEBUG_VALUE: sc_bwt:to_copy <- $x22
	//DEBUG_VALUE: sc_bwt:sc <- $x21
	//DEBUG_VALUE: sc_bwt:rot_table <- $x20
	//DEBUG_VALUE: sc_bwt:size <- $fp
	//DEBUG_VALUE: sc_bwt:i <- 0
	.loc	4 0 0 is_stmt 0                 // sc.c:0:0
	ldr	x1, [x20, x26, lsl #3]
	ldr	x8, [sp, #24]                   // 8-byte Folded Reload
.Ltmp143:
	.loc	4 317 13                        // sc.c:317:13
	add	x0, x8, x28
.Ltmp144:
	.loc	4 318 60 is_stmt 1              // sc.c:318:60
	mov	x2, x22
	bl	memcpy
.Ltmp145:
	//DEBUG_VALUE: sc_bwt:i <- undef
	.loc	4 0 60 is_stmt 0                // sc.c:0:60
	b	.LBB7_7
.Ltmp146:
.LBB7_18:
	//DEBUG_VALUE: sc_bwt:outlen <- $x22
	//DEBUG_VALUE: sc_bwt:sc <- $x21
	//DEBUG_VALUE: sc_bwt:rot_table <- $x20
	//DEBUG_VALUE: sc_bwt:op <- $w23
	//DEBUG_VALUE: sc_bwt:out <- $fp
	//DEBUG_VALUE: sc_bwt:num_blocks <- 0
	//DEBUG_VALUE: sc_bwt:to_copy <- 0
	//DEBUG_VALUE: sc_bwt:size <- 0
	//DEBUG_VALUE: sc_bwt:size <- 0
	//DEBUG_VALUE: sc_bwt:num_blocks <- 0
	.loc	4 263 29 is_stmt 1              // sc.c:263:29
	ldr	x8, [x21, #104]
.Ltmp147:
	.loc	4 263 17 is_stmt 0              // sc.c:263:17
	cbz	x8, .LBB7_33
.Ltmp148:
// %bb.19:
	//DEBUG_VALUE: sc_bwt:outlen <- $x22
	//DEBUG_VALUE: sc_bwt:sc <- $x21
	//DEBUG_VALUE: sc_bwt:rot_table <- $x20
	//DEBUG_VALUE: sc_bwt:op <- $w23
	//DEBUG_VALUE: sc_bwt:out <- $fp
	//DEBUG_VALUE: sc_bwt:num_blocks <- 0
	//DEBUG_VALUE: sc_bwt:to_copy <- 0
	//DEBUG_VALUE: sc_bwt:size <- 0
	.loc	4 0 17                          // sc.c:0:17
	mov	x24, xzr
	mov	x25, xzr
	.loc	4 263 17                        // sc.c:263:17
	add	x26, x29, #2                    // =2
	mov	w27, #512
	b	.LBB7_21
.Ltmp149:
.LBB7_20:                               //   in Loop: Header=BB7_21 Depth=1
	//DEBUG_VALUE: sc_bwt:size <- $x25
	//DEBUG_VALUE: sc_bwt:to_copy <- $x22
	//DEBUG_VALUE: sc_bwt:sc <- $x21
	//DEBUG_VALUE: sc_bwt:rot_table <- $x20
	//DEBUG_VALUE: sc_bwt:oidx <- $w19
	//DEBUG_VALUE: sc_bwt:out <- $fp
	.loc	4 263 29                        // sc.c:263:29
	ldr	x8, [x21, #104]
.Ltmp150:
	.loc	4 0 0                           // sc.c:0:0
	add	x24, x24, #1                    // =1
.Ltmp151:
	//DEBUG_VALUE: sc_bwt:num_blocks <- $x24
	.loc	4 283 18 is_stmt 1              // sc.c:283:18
	add	x25, x22, x25
.Ltmp152:
	//DEBUG_VALUE: sc_bwt:size <- $x25
	.loc	4 263 17                        // sc.c:263:17
	cmp	x8, x25
	add	x26, x26, #2                    // =2
	b.ls	.LBB7_33
.Ltmp153:
.LBB7_21:                               // =>This Loop Header: Depth=1
                                        //     Child Loop BB7_23 Depth 2
                                        //     Child Loop BB7_26 Depth 2
                                        //     Child Loop BB7_32 Depth 2
	//DEBUG_VALUE: sc_bwt:sc <- $x21
	//DEBUG_VALUE: sc_bwt:rot_table <- $x20
	//DEBUG_VALUE: sc_bwt:out <- $fp
	//DEBUG_VALUE: sc_bwt:size <- $x25
	//DEBUG_VALUE: sc_bwt:num_blocks <- $x24
	.loc	4 265 36                        // sc.c:265:36
	sub	x8, x8, x25
	.loc	4 265 23 is_stmt 0              // sc.c:265:23
	cmp	x8, #512                        // =512
	csel	x22, x8, x27, lo
.Ltmp154:
	//DEBUG_VALUE: sc_bwt:outlen <- [DW_OP_LLVM_entry_value 1] $x2
	//DEBUG_VALUE: sc_bwt:to_copy <- $x22
	.loc	4 266 13 is_stmt 1              // sc.c:266:13
	add	x0, sp, #32                     // =32
	mov	w2, #512
	mov	w1, wzr
	bl	memset
.Ltmp155:
	.loc	4 267 32                        // sc.c:267:32
	ldr	x8, [x21, #96]
	.loc	4 267 28 is_stmt 0              // sc.c:267:28
	add	x1, x8, x25
	.loc	4 267 13                        // sc.c:267:13
	add	x0, sp, #32                     // =32
	mov	x2, x22
	bl	memcpy
.Ltmp156:
	//DEBUG_VALUE: sc_bwt:i <- 0
	.loc	4 269 13 is_stmt 1              // sc.c:269:13
	cbz	x22, .LBB7_24
.Ltmp157:
// %bb.22:                              // %.preheader3
                                        //   in Loop: Header=BB7_21 Depth=1
	//DEBUG_VALUE: sc_bwt:size <- $x25
	//DEBUG_VALUE: sc_bwt:num_blocks <- $x24
	//DEBUG_VALUE: sc_bwt:to_copy <- $x22
	//DEBUG_VALUE: sc_bwt:sc <- $x21
	//DEBUG_VALUE: sc_bwt:rot_table <- $x20
	//DEBUG_VALUE: sc_bwt:out <- $fp
	//DEBUG_VALUE: sc_bwt:i <- 0
	.loc	4 0 13 is_stmt 0                // sc.c:0:13
	mov	x23, xzr
.Ltmp158:
	//DEBUG_VALUE: sc_bwt:op <- [DW_OP_LLVM_entry_value 1] $w1
.LBB7_23:                               //   Parent Loop BB7_21 Depth=1
                                        // =>  This Inner Loop Header: Depth=2
	//DEBUG_VALUE: sc_bwt:size <- $x25
	//DEBUG_VALUE: sc_bwt:num_blocks <- $x24
	//DEBUG_VALUE: sc_bwt:to_copy <- $x22
	//DEBUG_VALUE: sc_bwt:sc <- $x21
	//DEBUG_VALUE: sc_bwt:rot_table <- $x20
	//DEBUG_VALUE: sc_bwt:out <- $fp
	//DEBUG_VALUE: sc_bwt:i <- $x23
	.loc	4 271 24 is_stmt 1              // sc.c:271:24
	lsl	x19, x23, #3
	ldr	x0, [x20, x19]
	.loc	4 271 17 is_stmt 0              // sc.c:271:17
	add	x1, sp, #32                     // =32
	mov	x2, x22
	bl	memcpy
.Ltmp159:
	.loc	4 272 27 is_stmt 1              // sc.c:272:27
	ldr	x0, [x20, x19]
	.loc	4 272 17 is_stmt 0              // sc.c:272:17
	mov	x1, x22
	mov	x2, x23
	bl	_rot_left
.Ltmp160:
	.loc	4 269 38 is_stmt 1              // sc.c:269:38
	add	x23, x23, #1                    // =1
.Ltmp161:
	//DEBUG_VALUE: sc_bwt:i <- $x23
	.loc	4 269 13 is_stmt 0              // sc.c:269:13
	cmp	x22, x23
	b.hi	.LBB7_23
.Ltmp162:
.LBB7_24:                               //   in Loop: Header=BB7_21 Depth=1
	//DEBUG_VALUE: sc_bwt:size <- $x25
	//DEBUG_VALUE: sc_bwt:num_blocks <- $x24
	//DEBUG_VALUE: sc_bwt:to_copy <- $x22
	//DEBUG_VALUE: sc_bwt:sc <- $x21
	//DEBUG_VALUE: sc_bwt:rot_table <- $x20
	//DEBUG_VALUE: sc_bwt:out <- $fp
	.loc	4 274 13 is_stmt 1              // sc.c:274:13
	mov	x0, x20
	mov	w1, w22
	mov	x2, x21
	bl	_sort
.Ltmp163:
	//DEBUG_VALUE: sc_bwt:oidx <- 0
	.loc	4 275 13                        // sc.c:275:13
	cbz	x22, .LBB7_29
.Ltmp164:
// %bb.25:                              // %.preheader1
                                        //   in Loop: Header=BB7_21 Depth=1
	//DEBUG_VALUE: sc_bwt:size <- $x25
	//DEBUG_VALUE: sc_bwt:num_blocks <- $x24
	//DEBUG_VALUE: sc_bwt:to_copy <- $x22
	//DEBUG_VALUE: sc_bwt:sc <- $x21
	//DEBUG_VALUE: sc_bwt:rot_table <- $x20
	//DEBUG_VALUE: sc_bwt:out <- $fp
	//DEBUG_VALUE: sc_bwt:oidx <- 0
	.loc	4 0 13 is_stmt 0                // sc.c:0:13
	mov	x19, xzr
.Ltmp165:
.LBB7_26:                               //   Parent Loop BB7_21 Depth=1
                                        // =>  This Inner Loop Header: Depth=2
	//DEBUG_VALUE: sc_bwt:size <- $x25
	//DEBUG_VALUE: sc_bwt:num_blocks <- $x24
	//DEBUG_VALUE: sc_bwt:to_copy <- $x22
	//DEBUG_VALUE: sc_bwt:sc <- $x21
	//DEBUG_VALUE: sc_bwt:rot_table <- $x20
	//DEBUG_VALUE: sc_bwt:out <- $fp
	//DEBUG_VALUE: sc_bwt:oidx <- undef
	.loc	4 276 28 is_stmt 1              // sc.c:276:28
	ldr	x0, [x20, x19, lsl #3]
	.loc	4 276 21 is_stmt 0              // sc.c:276:21
	add	x1, sp, #32                     // =32
	mov	x2, x22
	bl	bcmp
.Ltmp166:
	.loc	4 276 21                        // sc.c:276:21
	cbz	w0, .LBB7_30
.Ltmp167:
// %bb.27:                              //   in Loop: Header=BB7_26 Depth=2
	//DEBUG_VALUE: sc_bwt:size <- $x25
	//DEBUG_VALUE: sc_bwt:num_blocks <- $x24
	//DEBUG_VALUE: sc_bwt:to_copy <- $x22
	//DEBUG_VALUE: sc_bwt:sc <- $x21
	//DEBUG_VALUE: sc_bwt:rot_table <- $x20
	//DEBUG_VALUE: sc_bwt:out <- $fp
	.loc	4 275 44 is_stmt 1              // sc.c:275:44
	add	w8, w19, #1                     // =1
.Ltmp168:
	//DEBUG_VALUE: sc_bwt:oidx <- $w8
	.loc	4 275 28 is_stmt 0              // sc.c:275:28
	and	x19, x8, #0xffff
.Ltmp169:
	.loc	4 275 13                        // sc.c:275:13
	cmp	x22, x19
	b.hi	.LBB7_26
.Ltmp170:
// %bb.28:                              //   in Loop: Header=BB7_21 Depth=1
	//DEBUG_VALUE: sc_bwt:size <- $x25
	//DEBUG_VALUE: sc_bwt:num_blocks <- $x24
	//DEBUG_VALUE: sc_bwt:to_copy <- $x22
	//DEBUG_VALUE: sc_bwt:sc <- $x21
	//DEBUG_VALUE: sc_bwt:rot_table <- $x20
	//DEBUG_VALUE: sc_bwt:oidx <- $w8
	//DEBUG_VALUE: sc_bwt:out <- $fp
	.loc	4 0 0                           // sc.c:0:0
	mov	w19, w8
	b	.LBB7_30
.Ltmp171:
.LBB7_29:                               //   in Loop: Header=BB7_21 Depth=1
	//DEBUG_VALUE: sc_bwt:size <- $x25
	//DEBUG_VALUE: sc_bwt:num_blocks <- $x24
	//DEBUG_VALUE: sc_bwt:to_copy <- $x22
	//DEBUG_VALUE: sc_bwt:sc <- $x21
	//DEBUG_VALUE: sc_bwt:rot_table <- $x20
	//DEBUG_VALUE: sc_bwt:out <- $fp
	//DEBUG_VALUE: sc_bwt:oidx <- 0
	mov	w19, wzr
.Ltmp172:
.LBB7_30:                               //   in Loop: Header=BB7_21 Depth=1
	//DEBUG_VALUE: sc_bwt:size <- $x25
	//DEBUG_VALUE: sc_bwt:num_blocks <- $x24
	//DEBUG_VALUE: sc_bwt:to_copy <- $x22
	//DEBUG_VALUE: sc_bwt:sc <- $x21
	//DEBUG_VALUE: sc_bwt:rot_table <- $x20
	//DEBUG_VALUE: sc_bwt:out <- $fp
	//DEBUG_VALUE: sc_bwt:oidx <- $w19
	.loc	4 279 42 is_stmt 1              // sc.c:279:42
	add	x8, x25, x24, lsl #1
	.loc	4 279 72 is_stmt 0              // sc.c:279:72
	strh	w19, [x29, x8]
.Ltmp173:
	//DEBUG_VALUE: sc_bwt:i <- 0
	//DEBUG_VALUE: sc_bwt:num_blocks <- undef
	.loc	4 281 13 is_stmt 1              // sc.c:281:13
	cbz	x22, .LBB7_20
.Ltmp174:
// %bb.31:                              //   in Loop: Header=BB7_21 Depth=1
	//DEBUG_VALUE: sc_bwt:size <- $x25
	//DEBUG_VALUE: sc_bwt:to_copy <- $x22
	//DEBUG_VALUE: sc_bwt:sc <- $x21
	//DEBUG_VALUE: sc_bwt:rot_table <- $x20
	//DEBUG_VALUE: sc_bwt:oidx <- $w19
	//DEBUG_VALUE: sc_bwt:out <- $fp
	//DEBUG_VALUE: sc_bwt:i <- 0
	.loc	4 0 13 is_stmt 0                // sc.c:0:13
	mov	x8, xzr
.Ltmp175:
	sub	x9, x22, #1                     // =1
.Ltmp176:
	.loc	4 281 13                        // sc.c:281:13
	add	x10, x26, x25
.Ltmp177:
.LBB7_32:                               //   Parent Loop BB7_21 Depth=1
                                        // =>  This Inner Loop Header: Depth=2
	//DEBUG_VALUE: sc_bwt:size <- $x25
	//DEBUG_VALUE: sc_bwt:to_copy <- $x22
	//DEBUG_VALUE: sc_bwt:sc <- $x21
	//DEBUG_VALUE: sc_bwt:rot_table <- $x20
	//DEBUG_VALUE: sc_bwt:oidx <- $w19
	//DEBUG_VALUE: sc_bwt:out <- $fp
	//DEBUG_VALUE: sc_bwt:i <- $x8
	.loc	4 282 62 is_stmt 1              // sc.c:282:62
	ldr	x11, [x20, x8, lsl #3]
	ldrb	w11, [x11, x9]
	.loc	4 282 60 is_stmt 0              // sc.c:282:60
	strb	w11, [x10, x8]
	.loc	4 281 38 is_stmt 1              // sc.c:281:38
	add	x8, x8, #1                      // =1
.Ltmp178:
	//DEBUG_VALUE: sc_bwt:i <- $x8
	.loc	4 281 13 is_stmt 0              // sc.c:281:13
	cmp	x22, x8
	b.hi	.LBB7_32
	b	.LBB7_20
.Ltmp179:
.LBB7_33:                               // %.preheader
	//DEBUG_VALUE: sc_bwt:sc <- $x21
	//DEBUG_VALUE: sc_bwt:rot_table <- $x20
	.loc	4 0 13                          // sc.c:0:13
	mov	x19, xzr
.Ltmp180:
.LBB7_34:                               // =>This Inner Loop Header: Depth=1
	//DEBUG_VALUE: sc_bwt:sc <- $x21
	//DEBUG_VALUE: sc_bwt:rot_table <- $x20
	//DEBUG_VALUE: sc_bwt:i <- undef
	.loc	4 329 14 is_stmt 1              // sc.c:329:14
	ldr	x0, [x20, x19]
	.loc	4 329 9 is_stmt 0               // sc.c:329:9
	bl	free
.Ltmp181:
	//DEBUG_VALUE: sc_bwt:i <- [DW_OP_plus_uconst 1, DW_OP_stack_value] undef
	.loc	4 328 19 is_stmt 1              // sc.c:328:19
	add	x19, x19, #8                    // =8
.Ltmp182:
	.loc	4 328 5 is_stmt 0               // sc.c:328:5
	cmp	x19, #1, lsl #12                // =4096
	b.ne	.LBB7_34
.Ltmp183:
// %bb.35:
	//DEBUG_VALUE: sc_bwt:sc <- $x21
	//DEBUG_VALUE: sc_bwt:rot_table <- $x20
	.loc	4 330 5 is_stmt 1               // sc.c:330:5
	mov	x0, x20
	bl	free
.Ltmp184:
.LBB7_36:
	.loc	4 333 1                         // sc.c:333:1
	mov	x0, x29
	add	sp, sp, #544                    // =544
	ldp	x20, x19, [sp, #80]             // 16-byte Folded Reload
	ldp	x22, x21, [sp, #64]             // 16-byte Folded Reload
	ldp	x24, x23, [sp, #48]             // 16-byte Folded Reload
	ldp	x26, x25, [sp, #32]             // 16-byte Folded Reload
	ldp	x28, x27, [sp, #16]             // 16-byte Folded Reload
	ldp	x29, x30, [sp], #96             // 16-byte Folded Reload
	ret
.Ltmp185:
.Lfunc_end7:
	.size	sc_bwt, .Lfunc_end7-sc_bwt
	.cfi_endproc
                                        // -- End function
	.globl	sc_mtf                          // -- Begin function sc_mtf
	.p2align	2
	.type	sc_mtf,@function
sc_mtf:                                 // @sc_mtf
.Lfunc_begin8:
	.loc	4 336 0                         // sc.c:336:0
	.cfi_startproc
// %bb.0:
	stp	x29, x30, [sp, #-96]!           // 16-byte Folded Spill
	stp	x28, x27, [sp, #16]             // 16-byte Folded Spill
	stp	x26, x25, [sp, #32]             // 16-byte Folded Spill
	stp	x24, x23, [sp, #48]             // 16-byte Folded Spill
	stp	x22, x21, [sp, #64]             // 16-byte Folded Spill
	stp	x20, x19, [sp, #80]             // 16-byte Folded Spill
	sub	sp, sp, #2304                   // =2304
	.cfi_def_cfa_offset 2400
	.cfi_offset w19, -8
	.cfi_offset w20, -16
	.cfi_offset w21, -24
	.cfi_offset w22, -32
	.cfi_offset w23, -40
	.cfi_offset w24, -48
	.cfi_offset w25, -56
	.cfi_offset w26, -64
	.cfi_offset w27, -72
	.cfi_offset w28, -80
	.cfi_offset w30, -88
	.cfi_offset w29, -96
	mov	x19, x2
	mov	x21, x0
.Ltmp186:
	//DEBUG_VALUE: sc_mtf:sc <- $x21
	//DEBUG_VALUE: sc_mtf:op <- $w1
	//DEBUG_VALUE: sc_mtf:outlen <- $x19
	.loc	4 0 0 prologue_end              // sc.c:0:0
	add	x25, sp, #2048                  // =2048
.Ltmp187:
	//DEBUG_VALUE: sc_mtf:sc <- $x0
	//DEBUG_VALUE: sc_mtf:op <- $w1
	//DEBUG_VALUE: sc_mtf:outlen <- $x2
	.loc	4 340 9                         // sc.c:340:9
	cbz	w1, .LBB8_3
.Ltmp188:
// %bb.1:
	//DEBUG_VALUE: sc_mtf:outlen <- $x2
	//DEBUG_VALUE: sc_mtf:sc <- $x0
	//DEBUG_VALUE: sc_mtf:op <- $w1
	.loc	4 398 36                        // sc.c:398:36
	ldr	x8, [x21, #96]
	.loc	4 398 21 is_stmt 0              // sc.c:398:21
	ldr	x22, [x8]
.Ltmp189:
	//DEBUG_VALUE: sz <- $x22
	.loc	4 399 13 is_stmt 1              // sc.c:399:13
	cmp	x22, #1, lsl #12                // =4096
	b.ls	.LBB8_21
.Ltmp190:
// %bb.2:
	//DEBUG_VALUE: sz <- $x22
	//DEBUG_VALUE: sc_mtf:outlen <- $x2
	//DEBUG_VALUE: sc_mtf:sc <- $x0
	//DEBUG_VALUE: sc_mtf:op <- $w1
	.loc	4 0 0 is_stmt 0                 // sc.c:0:0
	mov	x20, xzr
	b	.LBB8_33
.Ltmp191:
.LBB8_3:
	//DEBUG_VALUE: sc_mtf:outlen <- $x2
	//DEBUG_VALUE: sc_mtf:sc <- $x0
	//DEBUG_VALUE: sc_mtf:op <- $w1
	.loc	4 343 41 is_stmt 1              // sc.c:343:41
	ldr	x23, [x21, #104]
	.loc	4 343 30 is_stmt 0              // sc.c:343:30
	mov	x0, x23
.Ltmp192:
	//DEBUG_VALUE: sc_mtf:sc <- [DW_OP_LLVM_entry_value 1] $x0
	bl	malloc
.Ltmp193:
	//DEBUG_VALUE: sc_mtf:op <- [DW_OP_LLVM_entry_value 1] $w1
	mov	x22, x0
.Ltmp194:
	//DEBUG_VALUE: out <- $x22
	.loc	4 344 52 is_stmt 1              // sc.c:344:52
	lsl	x24, x23, #1
	.loc	4 344 56 is_stmt 0              // sc.c:344:56
	add	x0, x24, #4                     // =4
	.loc	4 344 32                        // sc.c:344:32
	bl	malloc
.Ltmp195:
	mov	x20, x0
.Ltmp196:
	//DEBUG_VALUE: out_c <- $x20
	.loc	4 345 26 is_stmt 1              // sc.c:345:26
	str	x23, [x0]
	.loc	4 346 9                         // sc.c:346:9
	mov	x0, x22
	mov	w1, wzr
	mov	x2, x23
	bl	memset
.Ltmp197:
	//DEBUG_VALUE: sc_mtf:i <- 0
	.loc	4 0 9 is_stmt 0                 // sc.c:0:9
	mov	x8, xzr
.Ltmp198:
.LBB8_4:                                // =>This Inner Loop Header: Depth=1
	//DEBUG_VALUE: out <- $x22
	//DEBUG_VALUE: out_c <- $x20
	//DEBUG_VALUE: sc_mtf:op <- [DW_OP_LLVM_entry_value 1] $w1
	//DEBUG_VALUE: sc_mtf:sc <- [DW_OP_LLVM_entry_value 1] $x0
	//DEBUG_VALUE: sc_mtf:i <- $x8
	.loc	4 349 21 is_stmt 1              // sc.c:349:21
	strb	w8, [x25, x8]
	.loc	4 348 29                        // sc.c:348:29
	add	x8, x8, #1                      // =1
.Ltmp199:
	//DEBUG_VALUE: sc_mtf:i <- $x8
	.loc	4 348 9 is_stmt 0               // sc.c:348:9
	cmp	x8, #32                         // =32
	b.ne	.LBB8_4
.Ltmp200:
// %bb.5:
	//DEBUG_VALUE: out <- $x22
	//DEBUG_VALUE: out_c <- $x20
	//DEBUG_VALUE: sc_mtf:i <- $x8
	//DEBUG_VALUE: sc_mtf:op <- [DW_OP_LLVM_entry_value 1] $w1
	//DEBUG_VALUE: sc_mtf:sc <- [DW_OP_LLVM_entry_value 1] $x0
	.loc	4 350 9 is_stmt 1               // sc.c:350:9
	ldp	x9, x8, [x21, #16]
.Ltmp201:
	ldp	x11, x10, [x21]
	str	x8, [sp, #2104]
	str	x9, [sp, #2096]
	str	x10, [sp, #2088]
	str	x11, [sp, #2080]
	ldp	x9, x8, [x21, #48]
	ldp	x11, x10, [x21, #32]
	str	x8, [sp, #2136]
	str	x9, [sp, #2128]
	str	x10, [sp, #2120]
	str	x11, [sp, #2112]
	ldur	x8, [x21, #87]
	ldp	x11, x9, [x21, #72]
	ldr	x10, [x21, #64]
	stur	x8, [x25, #119]
	mov	w8, #127
.Ltmp202:
	//DEBUG_VALUE: sc_mtf:i <- 127
	str	x9, [sp, #2160]
	str	x11, [sp, #2152]
	str	x10, [sp, #2144]
	add	x9, sp, #2048                   // =2048
.Ltmp203:
.LBB8_6:                                // =>This Inner Loop Header: Depth=1
	//DEBUG_VALUE: out <- $x22
	//DEBUG_VALUE: out_c <- $x20
	//DEBUG_VALUE: sc_mtf:op <- [DW_OP_LLVM_entry_value 1] $w1
	//DEBUG_VALUE: sc_mtf:sc <- [DW_OP_LLVM_entry_value 1] $x0
	//DEBUG_VALUE: sc_mtf:i <- $x8
	.loc	4 352 21                        // sc.c:352:21
	strb	w8, [x9, x8]
	.loc	4 351 41                        // sc.c:351:41
	add	x8, x8, #1                      // =1
.Ltmp204:
	//DEBUG_VALUE: sc_mtf:i <- $x8
	.loc	4 351 9 is_stmt 0               // sc.c:351:9
	cmp	x8, #256                        // =256
	b.ne	.LBB8_6
.Ltmp205:
// %bb.7:
	//DEBUG_VALUE: out <- $x22
	//DEBUG_VALUE: out_c <- $x20
	//DEBUG_VALUE: sc_mtf:i <- $x8
	//DEBUG_VALUE: sc_mtf:op <- [DW_OP_LLVM_entry_value 1] $w1
	//DEBUG_VALUE: sc_mtf:sc <- [DW_OP_LLVM_entry_value 1] $x0
	//DEBUG_VALUE: sc_mtf:i <- 0
	.loc	4 354 9 is_stmt 1               // sc.c:354:9
	cbz	x23, .LBB8_14
.Ltmp206:
// %bb.8:
	//DEBUG_VALUE: out <- $x22
	//DEBUG_VALUE: out_c <- $x20
	//DEBUG_VALUE: sc_mtf:i <- 0
	//DEBUG_VALUE: sc_mtf:op <- [DW_OP_LLVM_entry_value 1] $w1
	//DEBUG_VALUE: sc_mtf:sc <- [DW_OP_LLVM_entry_value 1] $x0
	.loc	4 0 9 is_stmt 0                 // sc.c:0:9
	mov	x26, xzr
.Ltmp207:
	ldr	x27, [x21, #96]
	add	x28, sp, #2048                  // =2048
.Ltmp208:
	orr	x25, x28, #0x1
	b	.LBB8_11
.Ltmp209:
.LBB8_9:                                //   in Loop: Header=BB8_11 Depth=1
	//DEBUG_VALUE: sc_mtf:i <- $x26
	//DEBUG_VALUE: out <- $x22
	//DEBUG_VALUE: out_c <- $x20
	//DEBUG_VALUE: sc_mtf:j <- $x2
	//DEBUG_VALUE: sc_mtf:op <- [DW_OP_LLVM_entry_value 1] $w1
	//DEBUG_VALUE: sc_mtf:sc <- [DW_OP_LLVM_entry_value 1] $x0
	//DEBUG_VALUE: sc_mtf:j <- [DW_OP_LLVM_convert 8 5, DW_OP_LLVM_convert 32 5, DW_OP_stack_value] undef
	.loc	4 360 28 is_stmt 1              // sc.c:360:28
	strb	w2, [x22, x26]
.Ltmp210:
.LBB8_10:                               //   in Loop: Header=BB8_11 Depth=1
	//DEBUG_VALUE: sc_mtf:i <- $x26
	//DEBUG_VALUE: out <- $x22
	//DEBUG_VALUE: out_c <- $x20
	//DEBUG_VALUE: sc_mtf:op <- [DW_OP_LLVM_entry_value 1] $w1
	//DEBUG_VALUE: sc_mtf:sc <- [DW_OP_LLVM_entry_value 1] $x0
	.loc	4 364 13                        // sc.c:364:13
	add	x1, sp, #2048                   // =2048
	mov	x0, x25
	bl	memmove
.Ltmp211:
	.loc	4 365 21                        // sc.c:365:21
	ldrb	w8, [x27, x26]
.Ltmp212:
	.loc	4 354 39                        // sc.c:354:39
	add	x26, x26, #1                    // =1
.Ltmp213:
	//DEBUG_VALUE: sc_mtf:i <- $x26
	.loc	4 354 9 is_stmt 0               // sc.c:354:9
	cmp	x26, x23
.Ltmp214:
	.loc	4 365 19 is_stmt 1              // sc.c:365:19
	strb	w8, [sp, #2048]
.Ltmp215:
	.loc	4 354 9                         // sc.c:354:9
	b.eq	.LBB8_14
.Ltmp216:
.LBB8_11:                               // =>This Loop Header: Depth=1
                                        //     Child Loop BB8_12 Depth 2
	//DEBUG_VALUE: out <- $x22
	//DEBUG_VALUE: out_c <- $x20
	//DEBUG_VALUE: sc_mtf:op <- [DW_OP_LLVM_entry_value 1] $w1
	//DEBUG_VALUE: sc_mtf:sc <- [DW_OP_LLVM_entry_value 1] $x0
	//DEBUG_VALUE: sc_mtf:i <- $x26
	//DEBUG_VALUE: sc_mtf:j <- 0
	.loc	4 0 0 is_stmt 0                 // sc.c:0:0
	ldrb	w8, [x27, x26]
	mov	x2, xzr
.Ltmp217:
.LBB8_12:                               //   Parent Loop BB8_11 Depth=1
                                        // =>  This Inner Loop Header: Depth=2
	//DEBUG_VALUE: sc_mtf:i <- $x26
	//DEBUG_VALUE: out <- $x22
	//DEBUG_VALUE: out_c <- $x20
	//DEBUG_VALUE: sc_mtf:op <- [DW_OP_LLVM_entry_value 1] $w1
	//DEBUG_VALUE: sc_mtf:sc <- [DW_OP_LLVM_entry_value 1] $x0
	//DEBUG_VALUE: sc_mtf:j <- $x2
	.loc	4 358 36 is_stmt 1              // sc.c:358:36
	ldrb	w9, [x28, x2]
.Ltmp218:
	.loc	4 358 21 is_stmt 0              // sc.c:358:21
	cmp	w8, w9
	b.eq	.LBB8_9
.Ltmp219:
// %bb.13:                              //   in Loop: Header=BB8_12 Depth=2
	//DEBUG_VALUE: sc_mtf:i <- $x26
	//DEBUG_VALUE: out <- $x22
	//DEBUG_VALUE: out_c <- $x20
	//DEBUG_VALUE: sc_mtf:j <- $x2
	//DEBUG_VALUE: sc_mtf:op <- [DW_OP_LLVM_entry_value 1] $w1
	//DEBUG_VALUE: sc_mtf:sc <- [DW_OP_LLVM_entry_value 1] $x0
	.loc	4 356 43 is_stmt 1              // sc.c:356:43
	add	x2, x2, #1                      // =1
.Ltmp220:
	//DEBUG_VALUE: sc_mtf:j <- $x2
	.loc	4 356 13 is_stmt 0              // sc.c:356:13
	cmp	x2, #256                        // =256
	b.ne	.LBB8_12
	b	.LBB8_10
.Ltmp221:
.LBB8_14:
	//DEBUG_VALUE: out <- $x22
	//DEBUG_VALUE: out_c <- $x20
	//DEBUG_VALUE: sc_mtf:op <- [DW_OP_LLVM_entry_value 1] $w1
	//DEBUG_VALUE: sc_mtf:sc <- [DW_OP_LLVM_entry_value 1] $x0
	.loc	4 367 22 is_stmt 1              // sc.c:367:22
	add	x23, x20, #4                    // =4
	.loc	4 367 9 is_stmt 0               // sc.c:367:9
	mov	x0, x23
	mov	w1, wzr
	mov	x2, x24
	bl	memset
.Ltmp222:
	.loc	4 368 22 is_stmt 1              // sc.c:368:22
	mov	x0, x23
	bl	bit_new
.Ltmp223:
	.loc	4 369 29                        // sc.c:369:29
	ldr	x8, [x21, #104]
.Ltmp224:
	.loc	4 368 22                        // sc.c:368:22
	mov	x23, x0
.Ltmp225:
	//DEBUG_VALUE: bio <- $x23
	//DEBUG_VALUE: sc_mtf:i <- 0
	.loc	4 369 9                         // sc.c:369:9
	cbz	x8, .LBB8_20
.Ltmp226:
// %bb.15:                              // %.preheader
	//DEBUG_VALUE: bio <- $x23
	//DEBUG_VALUE: out <- $x22
	//DEBUG_VALUE: out_c <- $x20
	//DEBUG_VALUE: sc_mtf:i <- 0
	//DEBUG_VALUE: sc_mtf:op <- [DW_OP_LLVM_entry_value 1] $w1
	//DEBUG_VALUE: sc_mtf:sc <- [DW_OP_LLVM_entry_value 1] $x0
	.loc	4 0 9 is_stmt 0                 // sc.c:0:9
	mov	x25, xzr
	b	.LBB8_18
.Ltmp227:
.LBB8_16:                               //   in Loop: Header=BB8_18 Depth=1
	//DEBUG_VALUE: sc_mtf:i <- $x25
	//DEBUG_VALUE: bio <- $x23
	//DEBUG_VALUE: out <- $x22
	//DEBUG_VALUE: out_c <- $x20
	//DEBUG_VALUE: sc_mtf:op <- [DW_OP_LLVM_entry_value 1] $w1
	//DEBUG_VALUE: sc_mtf:sc <- [DW_OP_LLVM_entry_value 1] $x0
	.loc	4 378 17 is_stmt 1              // sc.c:378:17
	mov	w1, #128
	mov	w2, #1
	mov	x0, x23
	bl	bit_write
.Ltmp228:
	.loc	4 379 17                        // sc.c:379:17
	ubfiz	w1, w24, #4, #4
	mov	w2, #4
	mov	x0, x23
.Ltmp229:
.LBB8_17:                               //   in Loop: Header=BB8_18 Depth=1
	//DEBUG_VALUE: sc_mtf:i <- $x25
	//DEBUG_VALUE: bio <- $x23
	//DEBUG_VALUE: out <- $x22
	//DEBUG_VALUE: out_c <- $x20
	//DEBUG_VALUE: sc_mtf:op <- [DW_OP_LLVM_entry_value 1] $w1
	//DEBUG_VALUE: sc_mtf:sc <- [DW_OP_LLVM_entry_value 1] $x0
	.loc	4 0 0 is_stmt 0                 // sc.c:0:0
	bl	bit_write
.Ltmp230:
	.loc	4 369 29 is_stmt 1              // sc.c:369:29
	ldr	x8, [x21, #104]
	.loc	4 369 39 is_stmt 0              // sc.c:369:39
	add	x25, x25, #1                    // =1
.Ltmp231:
	//DEBUG_VALUE: sc_mtf:i <- $x25
	.loc	4 369 9                         // sc.c:369:9
	cmp	x8, x25
	b.ls	.LBB8_20
.Ltmp232:
.LBB8_18:                               // =>This Inner Loop Header: Depth=1
	//DEBUG_VALUE: bio <- $x23
	//DEBUG_VALUE: out <- $x22
	//DEBUG_VALUE: out_c <- $x20
	//DEBUG_VALUE: sc_mtf:op <- [DW_OP_LLVM_entry_value 1] $w1
	//DEBUG_VALUE: sc_mtf:sc <- [DW_OP_LLVM_entry_value 1] $x0
	//DEBUG_VALUE: sc_mtf:i <- $x25
	.loc	4 371 17 is_stmt 1              // sc.c:371:17
	ldrb	w24, [x22, x25]
.Ltmp233:
	.loc	4 371 17 is_stmt 0              // sc.c:371:17
	cmp	w24, #16                        // =16
	b.lo	.LBB8_16
.Ltmp234:
// %bb.19:                              //   in Loop: Header=BB8_18 Depth=1
	//DEBUG_VALUE: sc_mtf:i <- $x25
	//DEBUG_VALUE: bio <- $x23
	//DEBUG_VALUE: out <- $x22
	//DEBUG_VALUE: out_c <- $x20
	//DEBUG_VALUE: sc_mtf:op <- [DW_OP_LLVM_entry_value 1] $w1
	//DEBUG_VALUE: sc_mtf:sc <- [DW_OP_LLVM_entry_value 1] $x0
	.loc	4 373 17 is_stmt 1              // sc.c:373:17
	mov	w2, #1
	mov	x0, x23
	mov	w1, wzr
	bl	bit_write
.Ltmp235:
	.loc	4 374 17                        // sc.c:374:17
	mov	w2, #8
	mov	x0, x23
	mov	w1, w24
	b	.LBB8_17
.Ltmp236:
.LBB8_20:
	//DEBUG_VALUE: bio <- $x23
	//DEBUG_VALUE: out <- $x22
	//DEBUG_VALUE: out_c <- $x20
	//DEBUG_VALUE: sc_mtf:op <- [DW_OP_LLVM_entry_value 1] $w1
	//DEBUG_VALUE: sc_mtf:sc <- [DW_OP_LLVM_entry_value 1] $x0
	.loc	4 382 41                        // sc.c:382:41
	ldp	w9, w8, [x23, #8]
	.loc	4 382 46 is_stmt 0              // sc.c:382:46
	cmp	w8, #0                          // =0
	.loc	4 382 29                        // sc.c:382:29
	cinc	w8, w9, ne
	.loc	4 382 33                        // sc.c:382:33
	add	w8, w8, #4                      // =4
	.loc	4 382 17                        // sc.c:382:17
	str	x8, [x19]
	.loc	4 384 9 is_stmt 1               // sc.c:384:9
	mov	x0, x23
	bl	free
.Ltmp237:
	.loc	4 385 9                         // sc.c:385:9
	mov	x0, x22
	b	.LBB8_32
.Ltmp238:
.LBB8_21:
	//DEBUG_VALUE: sz <- $x22
	//DEBUG_VALUE: sc_mtf:outlen <- $x2
	//DEBUG_VALUE: sc_mtf:sc <- $x0
	//DEBUG_VALUE: sc_mtf:op <- $w1
	.loc	4 401 32                        // sc.c:401:32
	mov	x0, x22
.Ltmp239:
	//DEBUG_VALUE: sc_mtf:sc <- [DW_OP_LLVM_entry_value 1] $x0
	bl	malloc
.Ltmp240:
	//DEBUG_VALUE: sc_mtf:op <- [DW_OP_LLVM_entry_value 1] $w1
	mov	x20, x0
.Ltmp241:
	//DEBUG_VALUE: out_d <- $x20
	.loc	4 402 9                         // sc.c:402:9
	mov	x0, sp
	mov	w2, #2048
	mov	w1, wzr
	bl	memset
.Ltmp242:
	.loc	4 404 34                        // sc.c:404:34
	ldr	x8, [x21, #96]
	.loc	4 404 39 is_stmt 0              // sc.c:404:39
	add	x0, x8, #4                      // =4
	.loc	4 404 22                        // sc.c:404:22
	bl	bit_new
.Ltmp243:
	mov	x23, x0
.Ltmp244:
	//DEBUG_VALUE: bio <- $x23
	//DEBUG_VALUE: sc_mtf:i <- 0
	.loc	4 405 9 is_stmt 1               // sc.c:405:9
	cbz	x22, .LBB8_24
.Ltmp245:
// %bb.22:                              // %.preheader5
	//DEBUG_VALUE: bio <- $x23
	//DEBUG_VALUE: sz <- $x22
	//DEBUG_VALUE: out_d <- $x20
	//DEBUG_VALUE: sc_mtf:i <- 0
	//DEBUG_VALUE: sc_mtf:op <- [DW_OP_LLVM_entry_value 1] $w1
	//DEBUG_VALUE: sc_mtf:sc <- [DW_OP_LLVM_entry_value 1] $x0
	.loc	4 0 9 is_stmt 0                 // sc.c:0:9
	mov	x24, sp
	mov	w26, #4
	mov	w27, #8
	mov	x28, x22
.Ltmp246:
.LBB8_23:                               // =>This Inner Loop Header: Depth=1
	//DEBUG_VALUE: bio <- $x23
	//DEBUG_VALUE: sz <- $x22
	//DEBUG_VALUE: out_d <- $x20
	//DEBUG_VALUE: sc_mtf:op <- [DW_OP_LLVM_entry_value 1] $w1
	//DEBUG_VALUE: sc_mtf:sc <- [DW_OP_LLVM_entry_value 1] $x0
	//DEBUG_VALUE: sc_mtf:i <- undef
	.loc	4 407 17 is_stmt 1              // sc.c:407:17
	mov	w1, #1
	mov	x0, x23
	bl	bit_read
.Ltmp247:
	.loc	4 407 17 is_stmt 0              // sc.c:407:17
	cmp	w0, #0                          // =0
	csel	x1, x27, x26, eq
.Ltmp248:
	.loc	4 0 0                           // sc.c:0:0
	mov	x0, x23
	bl	bit_read
.Ltmp249:
	.loc	4 405 23 is_stmt 1              // sc.c:405:23
	subs	x28, x28, #1                    // =1
.Ltmp250:
	.loc	4 0 0 is_stmt 0                 // sc.c:0:0
	strb	w0, [x24], #1
.Ltmp251:
	//DEBUG_VALUE: sc_mtf:i <- [DW_OP_plus_uconst 1, DW_OP_stack_value] undef
	.loc	4 405 9                         // sc.c:405:9
	b.ne	.LBB8_23
.Ltmp252:
.LBB8_24:                               // %.preheader4
	//DEBUG_VALUE: bio <- $x23
	//DEBUG_VALUE: sz <- $x22
	//DEBUG_VALUE: out_d <- $x20
	//DEBUG_VALUE: sc_mtf:op <- [DW_OP_LLVM_entry_value 1] $w1
	//DEBUG_VALUE: sc_mtf:sc <- [DW_OP_LLVM_entry_value 1] $x0
	.loc	4 0 9                           // sc.c:0:9
	mov	x8, xzr
	add	x9, sp, #2048                   // =2048
.Ltmp253:
.LBB8_25:                               // =>This Inner Loop Header: Depth=1
	//DEBUG_VALUE: bio <- $x23
	//DEBUG_VALUE: sz <- $x22
	//DEBUG_VALUE: out_d <- $x20
	//DEBUG_VALUE: sc_mtf:op <- [DW_OP_LLVM_entry_value 1] $w1
	//DEBUG_VALUE: sc_mtf:sc <- [DW_OP_LLVM_entry_value 1] $x0
	//DEBUG_VALUE: sc_mtf:i <- $x8
	.loc	4 414 21 is_stmt 1              // sc.c:414:21
	strb	w8, [x9, x8]
	.loc	4 413 29                        // sc.c:413:29
	add	x8, x8, #1                      // =1
.Ltmp254:
	//DEBUG_VALUE: sc_mtf:i <- $x8
	.loc	4 413 9 is_stmt 0               // sc.c:413:9
	cmp	x8, #32                         // =32
	b.ne	.LBB8_25
.Ltmp255:
// %bb.26:
	//DEBUG_VALUE: bio <- $x23
	//DEBUG_VALUE: sz <- $x22
	//DEBUG_VALUE: out_d <- $x20
	//DEBUG_VALUE: sc_mtf:i <- $x8
	//DEBUG_VALUE: sc_mtf:op <- [DW_OP_LLVM_entry_value 1] $w1
	//DEBUG_VALUE: sc_mtf:sc <- [DW_OP_LLVM_entry_value 1] $x0
	.loc	4 415 9 is_stmt 1               // sc.c:415:9
	ldp	x9, x8, [x21, #16]
.Ltmp256:
	ldp	x11, x10, [x21]
	str	x8, [sp, #2104]
	str	x9, [sp, #2096]
	str	x10, [sp, #2088]
	str	x11, [sp, #2080]
	ldp	x9, x8, [x21, #48]
	ldp	x11, x10, [x21, #32]
	str	x8, [sp, #2136]
	str	x9, [sp, #2128]
	str	x10, [sp, #2120]
	str	x11, [sp, #2112]
	ldp	x12, x9, [x21, #72]
	ldur	x10, [x21, #87]
	ldr	x11, [x21, #64]
	mov	w8, #127
.Ltmp257:
	//DEBUG_VALUE: sc_mtf:i <- 127
	stur	x10, [x25, #119]
	str	x9, [sp, #2160]
	str	x12, [sp, #2152]
	str	x11, [sp, #2144]
	add	x9, sp, #2048                   // =2048
.Ltmp258:
.LBB8_27:                               // =>This Inner Loop Header: Depth=1
	//DEBUG_VALUE: bio <- $x23
	//DEBUG_VALUE: sz <- $x22
	//DEBUG_VALUE: out_d <- $x20
	//DEBUG_VALUE: sc_mtf:op <- [DW_OP_LLVM_entry_value 1] $w1
	//DEBUG_VALUE: sc_mtf:sc <- [DW_OP_LLVM_entry_value 1] $x0
	//DEBUG_VALUE: sc_mtf:i <- $x8
	.loc	4 417 21                        // sc.c:417:21
	strb	w8, [x9, x8]
	.loc	4 416 41                        // sc.c:416:41
	add	x8, x8, #1                      // =1
.Ltmp259:
	//DEBUG_VALUE: sc_mtf:i <- $x8
	.loc	4 416 9 is_stmt 0               // sc.c:416:9
	cmp	x8, #256                        // =256
	b.ne	.LBB8_27
.Ltmp260:
// %bb.28:
	//DEBUG_VALUE: bio <- $x23
	//DEBUG_VALUE: sz <- $x22
	//DEBUG_VALUE: out_d <- $x20
	//DEBUG_VALUE: sc_mtf:i <- $x8
	//DEBUG_VALUE: sc_mtf:op <- [DW_OP_LLVM_entry_value 1] $w1
	//DEBUG_VALUE: sc_mtf:sc <- [DW_OP_LLVM_entry_value 1] $x0
	//DEBUG_VALUE: sc_mtf:i <- 0
	.loc	4 419 9 is_stmt 1               // sc.c:419:9
	cbz	x22, .LBB8_31
.Ltmp261:
// %bb.29:
	//DEBUG_VALUE: bio <- $x23
	//DEBUG_VALUE: sz <- $x22
	//DEBUG_VALUE: out_d <- $x20
	//DEBUG_VALUE: sc_mtf:i <- 0
	//DEBUG_VALUE: sc_mtf:op <- [DW_OP_LLVM_entry_value 1] $w1
	//DEBUG_VALUE: sc_mtf:sc <- [DW_OP_LLVM_entry_value 1] $x0
	.loc	4 0 9 is_stmt 0                 // sc.c:0:9
	add	x24, sp, #2048                  // =2048
.Ltmp262:
	orr	x21, x24, #0x1
	mov	x25, sp
	mov	x26, x20
	mov	x27, x22
.Ltmp263:
.LBB8_30:                               // =>This Inner Loop Header: Depth=1
	//DEBUG_VALUE: bio <- $x23
	//DEBUG_VALUE: sz <- $x22
	//DEBUG_VALUE: out_d <- $x20
	//DEBUG_VALUE: sc_mtf:op <- [DW_OP_LLVM_entry_value 1] $w1
	//DEBUG_VALUE: sc_mtf:sc <- [DW_OP_LLVM_entry_value 1] $x0
	//DEBUG_VALUE: sc_mtf:i <- undef
	.loc	4 421 29 is_stmt 1              // sc.c:421:29
	ldrb	w2, [x25], #1
	.loc	4 421 24 is_stmt 0              // sc.c:421:24
	ldrb	w28, [x24, x2]
	.loc	4 421 22                        // sc.c:421:22
	strb	w28, [x26], #1
	.loc	4 422 13 is_stmt 1              // sc.c:422:13
	add	x1, sp, #2048                   // =2048
	mov	x0, x21
	bl	memmove
.Ltmp264:
	.loc	4 419 23                        // sc.c:419:23
	subs	x27, x27, #1                    // =1
.Ltmp265:
	.loc	4 423 19                        // sc.c:423:19
	strb	w28, [sp, #2048]
.Ltmp266:
	//DEBUG_VALUE: sc_mtf:i <- [DW_OP_plus_uconst 1, DW_OP_stack_value] undef
	.loc	4 419 9                         // sc.c:419:9
	b.ne	.LBB8_30
.Ltmp267:
.LBB8_31:
	//DEBUG_VALUE: bio <- $x23
	//DEBUG_VALUE: sz <- $x22
	//DEBUG_VALUE: out_d <- $x20
	//DEBUG_VALUE: sc_mtf:op <- [DW_OP_LLVM_entry_value 1] $w1
	//DEBUG_VALUE: sc_mtf:sc <- [DW_OP_LLVM_entry_value 1] $x0
	.loc	4 425 17                        // sc.c:425:17
	str	x22, [x19]
	.loc	4 426 9                         // sc.c:426:9
	mov	x0, x23
.Ltmp268:
.LBB8_32:
	//DEBUG_VALUE: sc_mtf:op <- [DW_OP_LLVM_entry_value 1] $w1
	//DEBUG_VALUE: sc_mtf:sc <- [DW_OP_LLVM_entry_value 1] $x0
	.loc	4 0 0 is_stmt 0                 // sc.c:0:0
	bl	free
.Ltmp269:
	//DEBUG_VALUE: bio <- 0
.LBB8_33:
	.loc	4 430 1 is_stmt 1               // sc.c:430:1
	mov	x0, x20
	add	sp, sp, #2304                   // =2304
	ldp	x20, x19, [sp, #80]             // 16-byte Folded Reload
	ldp	x22, x21, [sp, #64]             // 16-byte Folded Reload
	ldp	x24, x23, [sp, #48]             // 16-byte Folded Reload
	ldp	x26, x25, [sp, #32]             // 16-byte Folded Reload
	ldp	x28, x27, [sp, #16]             // 16-byte Folded Reload
	ldp	x29, x30, [sp], #96             // 16-byte Folded Reload
	ret
.Ltmp270:
.Lfunc_end8:
	.size	sc_mtf, .Lfunc_end8-sc_mtf
	.cfi_endproc
                                        // -- End function
	.globl	_rot_left                       // -- Begin function _rot_left
	.p2align	2
	.type	_rot_left,@function
_rot_left:                              // @_rot_left
.Lfunc_begin9:
	.loc	4 177 0                         // sc.c:177:0
	.cfi_startproc
// %bb.0:
	//DEBUG_VALUE: _rot_left:data <- $x0
	//DEBUG_VALUE: _rot_left:sz <- $x1
	//DEBUG_VALUE: _rot_left:rot <- $x2
	stp	x30, x21, [sp, #-32]!           // 16-byte Folded Spill
	stp	x20, x19, [sp, #16]             // 16-byte Folded Spill
	.cfi_def_cfa_offset 32
	.cfi_offset w19, -8
	.cfi_offset w20, -16
	.cfi_offset w21, -24
	.cfi_offset w30, -32
	mov	x19, x2
	mov	x20, x1
	mov	x21, x0
.Ltmp271:
	//DEBUG_VALUE: _rot_left:i <- 0
	//DEBUG_VALUE: _rot_left:rot <- $x19
	//DEBUG_VALUE: _rot_left:sz <- $x20
	//DEBUG_VALUE: _rot_left:data <- $x21
	.loc	4 181 21 prologue_end           // sc.c:181:21
	mov	w0, w19
	bl	_gcd
.Ltmp272:
	.loc	4 181 5 is_stmt 0               // sc.c:181:5
	cmp	w0, #1                          // =1
	b.lt	.LBB9_6
.Ltmp273:
// %bb.1:
	//DEBUG_VALUE: _rot_left:data <- $x21
	//DEBUG_VALUE: _rot_left:sz <- $x20
	//DEBUG_VALUE: _rot_left:rot <- $x19
	//DEBUG_VALUE: _rot_left:i <- 0
	.loc	4 0 5                           // sc.c:0:5
	mov	x8, xzr
.Ltmp274:
	.loc	4 181 19                        // sc.c:181:19
	mov	w9, w0
	b	.LBB9_3
.Ltmp275:
.LBB9_2:                                //   in Loop: Header=BB9_3 Depth=1
	//DEBUG_VALUE: _rot_left:data <- $x21
	//DEBUG_VALUE: _rot_left:sz <- $x20
	//DEBUG_VALUE: _rot_left:rot <- $x19
	//DEBUG_VALUE: _rot_left:i <- $x8
	//DEBUG_VALUE: _rot_left:k <- $w13
	.loc	4 181 36                        // sc.c:181:36
	add	x8, x8, #1                      // =1
.Ltmp276:
	//DEBUG_VALUE: _rot_left:i <- $x8
	.loc	4 181 5                         // sc.c:181:5
	cmp	x8, x9
.Ltmp277:
	.loc	4 195 17 is_stmt 1              // sc.c:195:17
	strb	w10, [x21, x11]
.Ltmp278:
	.loc	4 181 5                         // sc.c:181:5
	b.eq	.LBB9_6
.Ltmp279:
.LBB9_3:                                // =>This Loop Header: Depth=1
                                        //     Child Loop BB9_5 Depth 2
	//DEBUG_VALUE: _rot_left:data <- $x21
	//DEBUG_VALUE: _rot_left:sz <- $x20
	//DEBUG_VALUE: _rot_left:rot <- $x19
	//DEBUG_VALUE: _rot_left:i <- $x8
	//DEBUG_VALUE: _rot_left:j <- $x8
	.loc	4 184 15                        // sc.c:184:15
	ldrb	w10, [x21, x8]
.Ltmp280:
	//DEBUG_VALUE: _rot_left:tmp <- undef
	.loc	4 187 17                        // sc.c:187:17
	add	w11, w8, w19
.Ltmp281:
	//DEBUG_VALUE: _rot_left:k <- $w11
	.loc	4 188 17                        // sc.c:188:17
	sxtw	x12, w11
.Ltmp282:
	.loc	4 188 17 is_stmt 0              // sc.c:188:17
	cmp	x12, x20
	csel	w12, wzr, w20, lo
	sub	w13, w11, w12
.Ltmp283:
	//DEBUG_VALUE: _rot_left:k <- $w13
	.loc	4 190 17 is_stmt 1              // sc.c:190:17
	cmp	x8, x13
	.loc	4 187 17                        // sc.c:187:17
	mov	x11, x8
	.loc	4 190 17                        // sc.c:190:17
	b.eq	.LBB9_2
.Ltmp284:
// %bb.4:                               // %.preheader
                                        //   in Loop: Header=BB9_3 Depth=1
	//DEBUG_VALUE: _rot_left:data <- $x21
	//DEBUG_VALUE: _rot_left:sz <- $x20
	//DEBUG_VALUE: _rot_left:rot <- $x19
	//DEBUG_VALUE: _rot_left:j <- $x8
	//DEBUG_VALUE: _rot_left:i <- $x8
	//DEBUG_VALUE: _rot_left:k <- $w13
                                        // kill: def $w13 killed $w13 killed $x13 def $x13
	.loc	4 0 17 is_stmt 0                // sc.c:0:17
	mov	x12, x8
.Ltmp285:
.LBB9_5:                                //   Parent Loop BB9_3 Depth=1
                                        // =>  This Inner Loop Header: Depth=2
	//DEBUG_VALUE: _rot_left:data <- $x21
	//DEBUG_VALUE: _rot_left:sz <- $x20
	//DEBUG_VALUE: _rot_left:rot <- $x19
	//DEBUG_VALUE: _rot_left:i <- $x8
	//DEBUG_VALUE: _rot_left:k <- $w13
	.loc	4 192 23 is_stmt 1              // sc.c:192:23
	sxtw	x11, w13
	.loc	4 187 17                        // sc.c:187:17
	add	w13, w13, w19
.Ltmp286:
	//DEBUG_VALUE: _rot_left:k <- $w13
	.loc	4 192 23                        // sc.c:192:23
	ldrb	w14, [x21, x11]
.Ltmp287:
	.loc	4 188 17                        // sc.c:188:17
	sxtw	x15, w13
.Ltmp288:
	.loc	4 188 17 is_stmt 0              // sc.c:188:17
	cmp	x15, x20
	csel	w15, wzr, w20, lo
	sub	w13, w13, w15
.Ltmp289:
	//DEBUG_VALUE: _rot_left:k <- $w13
	.loc	4 190 17 is_stmt 1              // sc.c:190:17
	cmp	x8, x13
	.loc	4 192 21                        // sc.c:192:21
	strb	w14, [x21, x12]
.Ltmp290:
	//DEBUG_VALUE: _rot_left:j <- undef
                                        // kill: def $w13 killed $w13 killed $x13 def $x13
	.loc	4 0 21 is_stmt 0                // sc.c:0:21
	mov	x12, x11
	.loc	4 190 17 is_stmt 1              // sc.c:190:17
	b.ne	.LBB9_5
	b	.LBB9_2
.Ltmp291:
.LBB9_6:
	//DEBUG_VALUE: _rot_left:data <- $x21
	//DEBUG_VALUE: _rot_left:sz <- $x20
	//DEBUG_VALUE: _rot_left:rot <- $x19
	.loc	4 197 1                         // sc.c:197:1
	ldp	x20, x19, [sp, #16]             // 16-byte Folded Reload
.Ltmp292:
	ldp	x30, x21, [sp], #32             // 16-byte Folded Reload
.Ltmp293:
	ret
.Ltmp294:
.Lfunc_end9:
	.size	_rot_left, .Lfunc_end9-_rot_left
	.cfi_endproc
                                        // -- End function
	.globl	_sort                           // -- Begin function _sort
	.p2align	2
	.type	_sort,@function
_sort:                                  // @_sort
.Lfunc_begin10:
	.loc	4 229 0                         // sc.c:229:0
	.cfi_startproc
// %bb.0:
	//DEBUG_VALUE: _sort:xs <- $x0
	//DEBUG_VALUE: _sort:len <- $w1
	//DEBUG_VALUE: _sort:sc <- $x2
	str	x30, [sp, #-48]!                // 8-byte Folded Spill
	stp	x22, x21, [sp, #16]             // 16-byte Folded Spill
	stp	x20, x19, [sp, #32]             // 16-byte Folded Spill
	.cfi_def_cfa_offset 48
	.cfi_offset w19, -8
	.cfi_offset w20, -16
	.cfi_offset w21, -24
	.cfi_offset w22, -32
	.cfi_offset w30, -48
	mov	x19, x2
	mov	w20, w1
	mov	x21, x0
.Ltmp295:
	//DEBUG_VALUE: _sort:sc <- $x19
	//DEBUG_VALUE: _sort:len <- $w20
	//DEBUG_VALUE: _sort:xs <- $x21
	.loc	4 230 57 prologue_end           // sc.c:230:57
	sbfiz	x0, x20, #3, #32
	.loc	4 230 26 is_stmt 0              // sc.c:230:26
	bl	malloc
.Ltmp296:
	mov	x22, x0
.Ltmp297:
	//DEBUG_VALUE: _sort:ys <- $x22
	.loc	4 231 5 is_stmt 1               // sc.c:231:5
	mov	x0, x21
.Ltmp298:
	//DEBUG_VALUE: _sort:xs <- $x0
	mov	x1, x22
	mov	w2, wzr
	mov	w3, w20
	mov	x4, x19
.Ltmp299:
	//DEBUG_VALUE: _sort:sc <- $x4
	bl	_msort
.Ltmp300:
	.loc	4 232 5                         // sc.c:232:5
	mov	x0, x22
	bl	free
.Ltmp301:
	.loc	4 233 1                         // sc.c:233:1
	ldp	x20, x19, [sp, #32]             // 16-byte Folded Reload
.Ltmp302:
	ldp	x22, x21, [sp, #16]             // 16-byte Folded Reload
.Ltmp303:
	ldr	x30, [sp], #48                  // 8-byte Folded Reload
	ret
.Ltmp304:
.Lfunc_end10:
	.size	_sort, .Lfunc_end10-_sort
	.cfi_endproc
                                        // -- End function
	.globl	_msort                          // -- Begin function _msort
	.p2align	2
	.type	_msort,@function
_msort:                                 // @_msort
.Lfunc_begin11:
	.loc	4 217 0                         // sc.c:217:0
	.cfi_startproc
// %bb.0:
	//DEBUG_VALUE: _msort:xs <- $x0
	//DEBUG_VALUE: _msort:ys <- $x1
	//DEBUG_VALUE: _msort:lo <- $w2
	//DEBUG_VALUE: _msort:hi <- $w3
	//DEBUG_VALUE: _msort:sc <- $x4
	//DEBUG_VALUE: _msort:sc <- $x4
	//DEBUG_VALUE: _msort:hi <- $w3
	//DEBUG_VALUE: _msort:lo <- $w2
	//DEBUG_VALUE: _msort:ys <- $x1
	.loc	4 219 12 prologue_end           // sc.c:219:12
	sub	w8, w3, w2
.Ltmp305:
	.loc	4 219 9 is_stmt 0               // sc.c:219:9
	cmp	w8, #2                          // =2
	//DEBUG_VALUE: _msort:xs <- $x0
	b.lt	.LBB11_2
.Ltmp306:
// %bb.1:
	//DEBUG_VALUE: _msort:sc <- $x4
	//DEBUG_VALUE: _msort:ys <- $x1
	//DEBUG_VALUE: _msort:xs <- $x0
	//DEBUG_VALUE: _msort:hi <- $w3
	//DEBUG_VALUE: _msort:lo <- $w2
	str	x30, [sp, #-64]!                // 8-byte Folded Spill
	stp	x24, x23, [sp, #16]             // 16-byte Folded Spill
	stp	x22, x21, [sp, #32]             // 16-byte Folded Spill
	stp	x20, x19, [sp, #48]             // 16-byte Folded Spill
	.cfi_def_cfa_offset 64
	.cfi_offset w19, -8
	.cfi_offset w20, -16
	.cfi_offset w21, -24
	.cfi_offset w22, -32
	.cfi_offset w23, -40
	.cfi_offset w24, -48
	.cfi_offset w30, -64
	mov	x19, x4
.Ltmp307:
	//DEBUG_VALUE: _msort:sc <- $x19
	.loc	4 0 9                           // sc.c:0:9
	mov	w20, w3
.Ltmp308:
	//DEBUG_VALUE: _msort:hi <- $w20
	mov	w21, w2
.Ltmp309:
	//DEBUG_VALUE: _msort:lo <- $w21
	mov	x22, x1
.Ltmp310:
	//DEBUG_VALUE: _msort:ys <- $x22
	mov	x23, x0
.Ltmp311:
	//DEBUG_VALUE: _msort:xs <- $x23
	.loc	4 221 31 is_stmt 1              // sc.c:221:31
	cmp	w8, #0                          // =0
	cinc	w8, w8, lt
	.loc	4 221 18 is_stmt 0              // sc.c:221:18
	add	w24, w2, w8, asr #1
.Ltmp312:
	//DEBUG_VALUE: _msort:mid <- $w24
	.loc	4 222 9 is_stmt 1               // sc.c:222:9
	mov	w3, w24
	bl	_msort
.Ltmp313:
	.loc	4 223 9                         // sc.c:223:9
	mov	x0, x23
	mov	x1, x22
	mov	w2, w24
	mov	w3, w20
	mov	x4, x19
	bl	_msort
.Ltmp314:
	.loc	4 224 9                         // sc.c:224:9
	mov	x0, x23
	mov	x1, x22
	mov	w2, w21
	mov	w3, w24
	mov	w4, w20
	mov	x5, x19
	bl	_merge
.Ltmp315:
	.loc	4 0 9 is_stmt 0                 // sc.c:0:9
	ldp	x20, x19, [sp, #48]             // 16-byte Folded Reload
.Ltmp316:
	//DEBUG_VALUE: _msort:sc <- [DW_OP_LLVM_entry_value 1] $x4
	//DEBUG_VALUE: _msort:hi <- [DW_OP_LLVM_entry_value 1] $w3
	ldp	x22, x21, [sp, #32]             // 16-byte Folded Reload
.Ltmp317:
	//DEBUG_VALUE: _msort:ys <- [DW_OP_LLVM_entry_value 1] $x1
	//DEBUG_VALUE: _msort:lo <- [DW_OP_LLVM_entry_value 1] $w2
	ldp	x24, x23, [sp, #16]             // 16-byte Folded Reload
.Ltmp318:
	//DEBUG_VALUE: _msort:xs <- [DW_OP_LLVM_entry_value 1] $x0
	ldr	x30, [sp], #64                  // 8-byte Folded Reload
.Ltmp319:
.LBB11_2:
	.loc	4 226 1 is_stmt 1               // sc.c:226:1
	ret
.Ltmp320:
.Lfunc_end11:
	.size	_msort, .Lfunc_end11-_msort
	.cfi_endproc
                                        // -- End function
	.globl	_merge                          // -- Begin function _merge
	.p2align	2
	.type	_merge,@function
_merge:                                 // @_merge
.Lfunc_begin12:
	.loc	4 200 0                         // sc.c:200:0
	.cfi_startproc
// %bb.0:
	//DEBUG_VALUE: _merge:xs <- $x0
	//DEBUG_VALUE: _merge:ys <- $x1
	//DEBUG_VALUE: _merge:lo <- $w2
	//DEBUG_VALUE: _merge:mid <- $w3
	//DEBUG_VALUE: _merge:hi <- $w4
	//DEBUG_VALUE: _merge:sc <- $x5
	sub	sp, sp, #112                    // =112
	stp	x29, x30, [sp, #16]             // 16-byte Folded Spill
	stp	x28, x27, [sp, #32]             // 16-byte Folded Spill
	stp	x26, x25, [sp, #48]             // 16-byte Folded Spill
	stp	x24, x23, [sp, #64]             // 16-byte Folded Spill
	stp	x22, x21, [sp, #80]             // 16-byte Folded Spill
	stp	x20, x19, [sp, #96]             // 16-byte Folded Spill
	.cfi_def_cfa_offset 112
	.cfi_offset w19, -8
	.cfi_offset w20, -16
	.cfi_offset w21, -24
	.cfi_offset w22, -32
	.cfi_offset w23, -40
	.cfi_offset w24, -48
	.cfi_offset w25, -56
	.cfi_offset w26, -64
	.cfi_offset w27, -72
	.cfi_offset w28, -80
	.cfi_offset w30, -88
	.cfi_offset w29, -96
.Ltmp321:
	//DEBUG_VALUE: _merge:i <- $w2
	//DEBUG_VALUE: _merge:j <- $w3
	//DEBUG_VALUE: _merge:k <- $w2
	mov	w19, w4
	mov	w23, w3
	mov	w20, w2
	str	x1, [sp, #8]                    // 8-byte Folded Spill
	mov	x22, x0
.Ltmp322:
	//DEBUG_VALUE: _merge:k <- $w20
	//DEBUG_VALUE: _merge:j <- $w23
	//DEBUG_VALUE: _merge:i <- $w20
	//DEBUG_VALUE: _merge:sc <- $x5
	//DEBUG_VALUE: _merge:hi <- $w19
	//DEBUG_VALUE: _merge:mid <- $w23
	//DEBUG_VALUE: _merge:lo <- $w20
	//DEBUG_VALUE: _merge:ys <- [DW_OP_plus_uconst 8] [$sp+0]
	//DEBUG_VALUE: _merge:xs <- $x22
	.loc	4 202 5 prologue_end            // sc.c:202:5
	cmp	w2, w3
	.loc	4 0 0 is_stmt 0                 // sc.c:0:0
	mov	w27, w2
	.loc	4 202 20                        // sc.c:202:20
	mov	w26, w3
	.loc	4 0 0                           // sc.c:0:0
	mov	w25, w2
	.loc	4 202 5                         // sc.c:202:5
	b.ge	.LBB12_5
.Ltmp323:
// %bb.1:
	//DEBUG_VALUE: _merge:xs <- $x22
	//DEBUG_VALUE: _merge:sc <- $x5
	//DEBUG_VALUE: _merge:mid <- $w23
	//DEBUG_VALUE: _merge:j <- $w23
	//DEBUG_VALUE: _merge:lo <- $w20
	//DEBUG_VALUE: _merge:i <- $w20
	//DEBUG_VALUE: _merge:k <- $w20
	//DEBUG_VALUE: _merge:hi <- $w19
	//DEBUG_VALUE: _merge:ys <- [DW_OP_plus_uconst 8] [$sp+0]
	//DEBUG_VALUE: _merge:sc <- $x5
	cmp	w23, w19
	.loc	4 0 0                           // sc.c:0:0
	mov	w27, w20
	.loc	4 202 20                        // sc.c:202:20
	mov	w26, w23
	.loc	4 0 0                           // sc.c:0:0
	mov	w25, w20
	.loc	4 202 5                         // sc.c:202:5
	b.ge	.LBB12_5
.Ltmp324:
// %bb.2:
	//DEBUG_VALUE: _merge:xs <- $x22
	//DEBUG_VALUE: _merge:sc <- $x5
	//DEBUG_VALUE: _merge:mid <- $w23
	//DEBUG_VALUE: _merge:j <- $w23
	//DEBUG_VALUE: _merge:lo <- $w20
	//DEBUG_VALUE: _merge:i <- $w20
	//DEBUG_VALUE: _merge:k <- $w20
	//DEBUG_VALUE: _merge:hi <- $w19
	//DEBUG_VALUE: _merge:ys <- [DW_OP_plus_uconst 8] [$sp+0]
	.loc	4 0 5                           // sc.c:0:5
	mov	x24, x5
.Ltmp325:
	//DEBUG_VALUE: _merge:sc <- $x24
	ldr	x8, [sp, #8]                    // 8-byte Folded Reload
	.loc	4 202 5                         // sc.c:202:5
	add	x28, x8, w20, sxtw #3
	mov	w25, w20
	mov	w26, w23
	mov	w27, w20
.Ltmp326:
.LBB12_3:                               // =>This Inner Loop Header: Depth=1
	//DEBUG_VALUE: _merge:sc <- $x24
	//DEBUG_VALUE: _merge:xs <- $x22
	//DEBUG_VALUE: _merge:mid <- $w23
	//DEBUG_VALUE: _merge:lo <- $w20
	//DEBUG_VALUE: _merge:hi <- $w19
	//DEBUG_VALUE: _merge:ys <- [DW_OP_plus_uconst 8] [$sp+0]
	//DEBUG_VALUE: _merge:i <- $w27
	//DEBUG_VALUE: _merge:j <- $w26
	//DEBUG_VALUE: _merge:k <- undef
	.loc	4 204 17 is_stmt 1              // sc.c:204:17
	ldr	x8, [x24, #112]
	.loc	4 204 32 is_stmt 0              // sc.c:204:32
	add	x29, x22, w27, sxtw #3
	.loc	4 204 39                        // sc.c:204:39
	add	x21, x22, w26, sxtw #3
	.loc	4 204 32                        // sc.c:204:32
	ldr	x1, [x29]
	.loc	4 204 39                        // sc.c:204:39
	ldr	x2, [x21]
	.loc	4 204 13                        // sc.c:204:13
	mov	w3, #512
	mov	x0, x24
	blr	x8
.Ltmp327:
	.loc	4 204 13                        // sc.c:204:13
	cmp	w0, #0                          // =0
	add	w27, w27, w0, lsr #31
.Ltmp328:
	csel	x8, x29, x21, lt
.Ltmp329:
	.loc	4 0 0                           // sc.c:0:0
	ldr	x8, [x8]
.Ltmp330:
	.loc	4 204 13                        // sc.c:204:13
	mvn	w9, w0
	add	w26, w26, w9, lsr #31
.Ltmp331:
	.loc	4 202 5 is_stmt 1               // sc.c:202:5
	cmp	w27, w23
.Ltmp332:
	.loc	4 0 0 is_stmt 0                 // sc.c:0:0
	str	x8, [x28], #8
.Ltmp333:
	//DEBUG_VALUE: _merge:k <- [DW_OP_plus_uconst 1, DW_OP_stack_value] undef
	//DEBUG_VALUE: _merge:j <- $w26
	//DEBUG_VALUE: _merge:i <- $w27
	.loc	4 202 5                         // sc.c:202:5
	add	w25, w25, #1                    // =1
	b.ge	.LBB12_5
.Ltmp334:
// %bb.4:                               //   in Loop: Header=BB12_3 Depth=1
	//DEBUG_VALUE: _merge:sc <- $x24
	//DEBUG_VALUE: _merge:xs <- $x22
	//DEBUG_VALUE: _merge:i <- $w27
	//DEBUG_VALUE: _merge:j <- $w26
	//DEBUG_VALUE: _merge:mid <- $w23
	//DEBUG_VALUE: _merge:lo <- $w20
	//DEBUG_VALUE: _merge:hi <- $w19
	//DEBUG_VALUE: _merge:ys <- [DW_OP_plus_uconst 8] [$sp+0]
	cmp	w26, w19
	b.lt	.LBB12_3
.Ltmp335:
.LBB12_5:
	//DEBUG_VALUE: _merge:xs <- $x22
	//DEBUG_VALUE: _merge:mid <- $w23
	//DEBUG_VALUE: _merge:lo <- $w20
	//DEBUG_VALUE: _merge:hi <- $w19
	//DEBUG_VALUE: _merge:ys <- [DW_OP_plus_uconst 8] [$sp+0]
	//DEBUG_VALUE: _merge:i <- $w27
	//DEBUG_VALUE: _merge:j <- $w26
	//DEBUG_VALUE: _merge:k <- $w25
	.loc	4 209 5 is_stmt 1               // sc.c:209:5
	cmp	w27, w23
	b.ge	.LBB12_9
.Ltmp336:
// %bb.6:
	//DEBUG_VALUE: _merge:xs <- $x22
	//DEBUG_VALUE: _merge:i <- $w27
	//DEBUG_VALUE: _merge:j <- $w26
	//DEBUG_VALUE: _merge:k <- $w25
	//DEBUG_VALUE: _merge:mid <- $w23
	//DEBUG_VALUE: _merge:lo <- $w20
	//DEBUG_VALUE: _merge:hi <- $w19
	//DEBUG_VALUE: _merge:ys <- [DW_OP_plus_uconst 8] [$sp+0]
	.loc	4 209 14 is_stmt 0              // sc.c:209:14
	sxtw	x9, w23
.Ltmp337:
	.loc	4 209 5                         // sc.c:209:5
	add	x8, x22, w27, sxtw #3
	sub	x9, x9, w27, sxtw
	ldr	x12, [sp, #8]                   // 8-byte Folded Reload
	add	x10, x12, w25, sxtw #3
.Ltmp338:
.LBB12_7:                               // =>This Inner Loop Header: Depth=1
	//DEBUG_VALUE: _merge:xs <- $x22
	//DEBUG_VALUE: _merge:j <- $w26
	//DEBUG_VALUE: _merge:mid <- $w23
	//DEBUG_VALUE: _merge:lo <- $w20
	//DEBUG_VALUE: _merge:hi <- $w19
	//DEBUG_VALUE: _merge:ys <- [DW_OP_plus_uconst 8] [$sp+0]
	//DEBUG_VALUE: _merge:i <- undef
	//DEBUG_VALUE: _merge:k <- undef
	.loc	4 210 17 is_stmt 1              // sc.c:210:17
	ldr	x11, [x8], #8
	.loc	4 209 14                        // sc.c:209:14
	subs	x9, x9, #1                      // =1
	.loc	4 210 15                        // sc.c:210:15
	str	x11, [x10], #8
.Ltmp339:
	//DEBUG_VALUE: _merge:k <- [DW_OP_plus_uconst 1, DW_OP_stack_value] undef
	//DEBUG_VALUE: _merge:i <- [DW_OP_plus_uconst 1, DW_OP_stack_value] undef
	.loc	4 209 14                        // sc.c:209:14
	add	w25, w25, #1                    // =1
.Ltmp340:
	.loc	4 209 5 is_stmt 0               // sc.c:209:5
	b.ne	.LBB12_7
.Ltmp341:
// %bb.8:
	//DEBUG_VALUE: _merge:xs <- $x22
	//DEBUG_VALUE: _merge:j <- $w26
	//DEBUG_VALUE: _merge:mid <- $w23
	//DEBUG_VALUE: _merge:lo <- $w20
	//DEBUG_VALUE: _merge:hi <- $w19
	//DEBUG_VALUE: _merge:ys <- [DW_OP_plus_uconst 8] [$sp+0]
	//DEBUG_VALUE: _merge:j <- $w26
	//DEBUG_VALUE: _merge:k <- $w25
	.loc	4 211 5 is_stmt 1               // sc.c:211:5
	cmp	w26, w19
	b.lt	.LBB12_10
	b	.LBB12_12
.Ltmp342:
.LBB12_9:
	//DEBUG_VALUE: _merge:xs <- $x22
	//DEBUG_VALUE: _merge:i <- $w27
	//DEBUG_VALUE: _merge:j <- $w26
	//DEBUG_VALUE: _merge:k <- $w25
	//DEBUG_VALUE: _merge:mid <- $w23
	//DEBUG_VALUE: _merge:lo <- $w20
	//DEBUG_VALUE: _merge:hi <- $w19
	//DEBUG_VALUE: _merge:ys <- [DW_OP_plus_uconst 8] [$sp+0]
	.loc	4 0 5 is_stmt 0                 // sc.c:0:5
	ldr	x12, [sp, #8]                   // 8-byte Folded Reload
	//DEBUG_VALUE: _merge:j <- $w26
	//DEBUG_VALUE: _merge:k <- $w25
	.loc	4 211 5                         // sc.c:211:5
	cmp	w26, w19
	b.ge	.LBB12_12
.Ltmp343:
.LBB12_10:
	//DEBUG_VALUE: _merge:xs <- $x22
	//DEBUG_VALUE: _merge:j <- $w26
	//DEBUG_VALUE: _merge:k <- $w25
	//DEBUG_VALUE: _merge:mid <- $w23
	//DEBUG_VALUE: _merge:lo <- $w20
	//DEBUG_VALUE: _merge:hi <- $w19
	//DEBUG_VALUE: _merge:ys <- [DW_OP_plus_uconst 8] [$sp+0]
	.loc	4 211 14                        // sc.c:211:14
	sxtw	x9, w19
.Ltmp344:
	.loc	4 211 5                         // sc.c:211:5
	add	x8, x22, w26, sxtw #3
	sub	x9, x9, w26, sxtw
	add	x10, x12, w25, sxtw #3
.Ltmp345:
.LBB12_11:                              // =>This Inner Loop Header: Depth=1
	//DEBUG_VALUE: _merge:xs <- $x22
	//DEBUG_VALUE: _merge:mid <- $w23
	//DEBUG_VALUE: _merge:lo <- $w20
	//DEBUG_VALUE: _merge:hi <- $w19
	//DEBUG_VALUE: _merge:ys <- [DW_OP_plus_uconst 8] [$sp+0]
	//DEBUG_VALUE: _merge:j <- undef
	//DEBUG_VALUE: _merge:k <- undef
	.loc	4 212 17 is_stmt 1              // sc.c:212:17
	ldr	x11, [x8], #8
	.loc	4 211 14                        // sc.c:211:14
	subs	x9, x9, #1                      // =1
	.loc	4 212 15                        // sc.c:212:15
	str	x11, [x10], #8
.Ltmp346:
	//DEBUG_VALUE: _merge:k <- [DW_OP_plus_uconst 1, DW_OP_stack_value] undef
	//DEBUG_VALUE: _merge:j <- [DW_OP_plus_uconst 1, DW_OP_stack_value] undef
	.loc	4 211 5                         // sc.c:211:5
	b.ne	.LBB12_11
.Ltmp347:
.LBB12_12:
	//DEBUG_VALUE: _merge:xs <- $x22
	//DEBUG_VALUE: _merge:mid <- $w23
	//DEBUG_VALUE: _merge:lo <- $w20
	//DEBUG_VALUE: _merge:hi <- $w19
	//DEBUG_VALUE: _merge:ys <- [DW_OP_plus_uconst 8] [$sp+0]
	.loc	4 213 13                        // sc.c:213:13
	sbfiz	x8, x20, #3, #32
	.loc	4 213 34 is_stmt 0              // sc.c:213:34
	sub	w9, w19, w20
	.loc	4 213 13                        // sc.c:213:13
	add	x0, x22, x8
	.loc	4 213 22                        // sc.c:213:22
	add	x1, x12, x8
	.loc	4 213 40                        // sc.c:213:40
	sbfiz	x2, x9, #3, #32
	.loc	4 213 5                         // sc.c:213:5
	bl	memcpy
.Ltmp348:
	.loc	4 214 1 is_stmt 1               // sc.c:214:1
	ldp	x20, x19, [sp, #96]             // 16-byte Folded Reload
.Ltmp349:
	ldp	x22, x21, [sp, #80]             // 16-byte Folded Reload
.Ltmp350:
	ldp	x24, x23, [sp, #64]             // 16-byte Folded Reload
.Ltmp351:
	ldp	x26, x25, [sp, #48]             // 16-byte Folded Reload
	ldp	x28, x27, [sp, #32]             // 16-byte Folded Reload
	ldp	x29, x30, [sp, #16]             // 16-byte Folded Reload
	add	sp, sp, #112                    // =112
	ret
.Ltmp352:
.Lfunc_end12:
	.size	_merge, .Lfunc_end12-_merge
	.cfi_endproc
                                        // -- End function
	.globl	_gcd                            // -- Begin function _gcd
	.p2align	2
	.type	_gcd,@function
_gcd:                                   // @_gcd
.Lfunc_begin13:
	.loc	4 170 0                         // sc.c:170:0
	.cfi_startproc
// %bb.0:
	//DEBUG_VALUE: _gcd:a <- $w0
	//DEBUG_VALUE: _gcd:a <- $w0
	//DEBUG_VALUE: _gcd:b <- $w1
	//DEBUG_VALUE: _gcd:b <- $w1
	.loc	4 171 9 prologue_end            // sc.c:171:9
	cbz	w1, .LBB13_2
.Ltmp353:
// %bb.1:
	//DEBUG_VALUE: _gcd:b <- $w1
	//DEBUG_VALUE: _gcd:a <- $w0
	str	x30, [sp, #-16]!                // 8-byte Folded Spill
	.cfi_def_cfa_offset 16
	.cfi_offset w30, -16
	.loc	4 173 22                        // sc.c:173:22
	sdiv	w8, w0, w1
	msub	w8, w8, w1, w0
	.loc	4 173 12 is_stmt 0              // sc.c:173:12
	mov	w0, w1
.Ltmp354:
	//DEBUG_VALUE: _gcd:a <- [DW_OP_LLVM_entry_value 1] $w0
	mov	w1, w8
.Ltmp355:
	//DEBUG_VALUE: _gcd:b <- [DW_OP_LLVM_entry_value 1] $w1
	bl	_gcd
.Ltmp356:
	.loc	4 0 12                          // sc.c:0:12
	ldr	x30, [sp], #16                  // 8-byte Folded Reload
.Ltmp357:
.LBB13_2:
	.loc	4 174 1 is_stmt 1               // sc.c:174:1
	ret
.Ltmp358:
.Lfunc_end13:
	.size	_gcd, .Lfunc_end13-_gcd
	.cfi_endproc
                                        // -- End function
	.globl	sc_sdecompress                  // -- Begin function sc_sdecompress
	.p2align	2
	.type	sc_sdecompress,@function
sc_sdecompress:                         // @sc_sdecompress
.Lfunc_begin14:
	.loc	4 136 0                         // sc.c:136:0
	.cfi_startproc
// %bb.0:
	//DEBUG_VALUE: sc_sdecompress:sc <- $x0
	//DEBUG_VALUE: sc_sdecompress:out <- $x1
	//DEBUG_VALUE: sc_sdecompress:outlen <- $x2
	str	x30, [sp, #-64]!                // 8-byte Folded Spill
	stp	x24, x23, [sp, #16]             // 16-byte Folded Spill
	stp	x22, x21, [sp, #32]             // 16-byte Folded Spill
	stp	x20, x19, [sp, #48]             // 16-byte Folded Spill
	.cfi_def_cfa_offset 64
	.cfi_offset w19, -8
	.cfi_offset w20, -16
	.cfi_offset w21, -24
	.cfi_offset w22, -32
	.cfi_offset w23, -40
	.cfi_offset w24, -48
	.cfi_offset w30, -64
	mov	x20, x0
	mov	w0, #-1
.Ltmp359:
	//DEBUG_VALUE: sc_sdecompress:sc <- [DW_OP_LLVM_entry_value 1] $x0
	//DEBUG_VALUE: sc_sdecompress:outlen <- $x2
	//DEBUG_VALUE: sc_sdecompress:out <- $x1
	//DEBUG_VALUE: sc_sdecompress:sc <- $x20
	.loc	4 137 13 prologue_end           // sc.c:137:13
	cbz	x20, .LBB14_6
.Ltmp360:
// %bb.1:
	//DEBUG_VALUE: sc_sdecompress:sc <- $x20
	//DEBUG_VALUE: sc_sdecompress:outlen <- $x2
	//DEBUG_VALUE: sc_sdecompress:out <- $x1
	//DEBUG_VALUE: sc_sdecompress:outlen <- $x2
	.loc	4 0 13 is_stmt 0                // sc.c:0:13
	mov	x19, x1
.Ltmp361:
	//DEBUG_VALUE: sc_sdecompress:out <- $x19
	.loc	4 137 13                        // sc.c:137:13
	cbz	x1, .LBB14_6
.Ltmp362:
// %bb.2:
	//DEBUG_VALUE: sc_sdecompress:sc <- $x20
	//DEBUG_VALUE: sc_sdecompress:out <- $x19
	//DEBUG_VALUE: sc_sdecompress:outlen <- $x2
	.loc	4 0 13                          // sc.c:0:13
	mov	x21, x2
.Ltmp363:
	//DEBUG_VALUE: sc_sdecompress:outlen <- $x21
	.loc	4 137 13                        // sc.c:137:13
	cbz	x2, .LBB14_6
.Ltmp364:
// %bb.3:
	//DEBUG_VALUE: sc_sdecompress:outlen <- $x21
	//DEBUG_VALUE: sc_sdecompress:sc <- $x20
	//DEBUG_VALUE: sc_sdecompress:out <- $x19
	.loc	4 141 26 is_stmt 1              // sc.c:141:26
	ldp	x24, x23, [x20, #96]
.Ltmp365:
	//DEBUG_VALUE: sc_sdecompress:buf <- 0
	//DEBUG_VALUE: sc_sdecompress:old_len <- $x23
	//DEBUG_VALUE: sc_sdecompress:old <- undef
	.loc	4 143 11                        // sc.c:143:11
	mov	w1, #1
	mov	x0, x20
	mov	x2, x21
	bl	sc_mtf
.Ltmp366:
	//DEBUG_VALUE: sc_sdecompress:buf <- $x0
	.loc	4 144 9                         // sc.c:144:9
	cbz	x0, .LBB14_5
.Ltmp367:
// %bb.4:
	//DEBUG_VALUE: sc_sdecompress:old_len <- $x23
	//DEBUG_VALUE: sc_sdecompress:outlen <- $x21
	//DEBUG_VALUE: sc_sdecompress:sc <- $x20
	//DEBUG_VALUE: sc_sdecompress:out <- $x19
	//DEBUG_VALUE: sc_sdecompress:buf <- $x0
	.loc	4 0 0 is_stmt 0                 // sc.c:0:0
	mov	x22, x0
.Ltmp368:
	//DEBUG_VALUE: sc_sdecompress:buf <- $x22
	.loc	4 146 14 is_stmt 1              // sc.c:146:14
	str	x0, [x20, #96]
	.loc	4 147 20                        // sc.c:147:20
	ldr	x8, [x21]
	.loc	4 147 18 is_stmt 0              // sc.c:147:18
	str	x8, [x20, #104]
	.loc	4 148 12 is_stmt 1              // sc.c:148:12
	mov	w1, #1
	mov	x0, x20
	mov	x2, x21
	bl	sc_bwt
.Ltmp369:
	.loc	4 148 10 is_stmt 0              // sc.c:148:10
	str	x0, [x19]
	.loc	4 149 5 is_stmt 1               // sc.c:149:5
	mov	x0, x22
	bl	free
.Ltmp370:
	.loc	4 150 14                        // sc.c:150:14
	stp	x24, x23, [x20, #96]
.Ltmp371:
	.loc	4 152 10                        // sc.c:152:10
	ldr	x8, [x19]
.Ltmp372:
	.loc	4 0 0 is_stmt 0                 // sc.c:0:0
	cmp	x8, #0                          // =0
	csetm	w0, eq
	b	.LBB14_6
.Ltmp373:
.LBB14_5:
	//DEBUG_VALUE: sc_sdecompress:old_len <- $x23
	//DEBUG_VALUE: sc_sdecompress:outlen <- $x21
	//DEBUG_VALUE: sc_sdecompress:sc <- $x20
	//DEBUG_VALUE: sc_sdecompress:out <- $x19
	//DEBUG_VALUE: sc_sdecompress:buf <- $x0
	mov	w0, #-1
.Ltmp374:
.LBB14_6:
	//DEBUG_VALUE: sc_sdecompress:sc <- $x20
	.loc	4 155 1 is_stmt 1               // sc.c:155:1
	ldp	x20, x19, [sp, #48]             // 16-byte Folded Reload
.Ltmp375:
	ldp	x22, x21, [sp, #32]             // 16-byte Folded Reload
	ldp	x24, x23, [sp, #16]             // 16-byte Folded Reload
	ldr	x30, [sp], #64                  // 8-byte Folded Reload
	ret
.Ltmp376:
.Lfunc_end14:
	.size	sc_sdecompress, .Lfunc_end14-sc_sdecompress
	.cfi_endproc
                                        // -- End function
	.globl	sc_set_data                     // -- Begin function sc_set_data
	.p2align	2
	.type	sc_set_data,@function
sc_set_data:                            // @sc_set_data
.Lfunc_begin15:
	.loc	4 158 0                         // sc.c:158:0
	.cfi_startproc
// %bb.0:
	//DEBUG_VALUE: sc_set_data:sc <- $x0
	//DEBUG_VALUE: sc_set_data:data <- $x1
	//DEBUG_VALUE: sc_set_data:data_len <- $x2
	//DEBUG_VALUE: sc_set_data:data_len <- $x2
	//DEBUG_VALUE: sc_set_data:data <- $x1
	//DEBUG_VALUE: sc_set_data:sc <- $x0
	.loc	4 159 9 prologue_end            // sc.c:159:9
	cbz	x0, .LBB15_4
.Ltmp377:
// %bb.1:
	//DEBUG_VALUE: sc_set_data:data_len <- $x2
	//DEBUG_VALUE: sc_set_data:data <- $x1
	//DEBUG_VALUE: sc_set_data:sc <- $x0
	stp	x30, x21, [sp, #-32]!           // 16-byte Folded Spill
	stp	x20, x19, [sp, #16]             // 16-byte Folded Spill
	.cfi_def_cfa_offset 32
	.cfi_offset w19, -8
	.cfi_offset w20, -16
	.cfi_offset w21, -24
	.cfi_offset w30, -32
	mov	x19, x2
.Ltmp378:
	//DEBUG_VALUE: sc_set_data:data_len <- $x19
	.loc	4 0 9 is_stmt 0                 // sc.c:0:9
	mov	x21, x1
.Ltmp379:
	//DEBUG_VALUE: sc_set_data:data <- $x21
	mov	x20, x0
.Ltmp380:
	//DEBUG_VALUE: sc_set_data:sc <- $x20
	.loc	4 161 13 is_stmt 1              // sc.c:161:13
	ldr	x0, [x0, #96]
.Ltmp381:
	.loc	4 161 9 is_stmt 0               // sc.c:161:9
	cbz	x0, .LBB15_3
.Ltmp382:
// %bb.2:
	//DEBUG_VALUE: sc_set_data:data <- $x21
	//DEBUG_VALUE: sc_set_data:sc <- $x20
	//DEBUG_VALUE: sc_set_data:data_len <- $x19
	.loc	4 162 9 is_stmt 1               // sc.c:162:9
	bl	free
.Ltmp383:
.LBB15_3:
	//DEBUG_VALUE: sc_set_data:data <- $x21
	//DEBUG_VALUE: sc_set_data:sc <- $x20
	//DEBUG_VALUE: sc_set_data:data_len <- $x19
	.loc	4 163 16                        // sc.c:163:16
	mov	x0, x19
	bl	malloc
.Ltmp384:
	.loc	4 163 14 is_stmt 0              // sc.c:163:14
	str	x0, [x20, #96]
	.loc	4 164 5 is_stmt 1               // sc.c:164:5
	mov	x1, x21
	mov	x2, x19
	bl	memcpy
.Ltmp385:
	.loc	4 0 0 is_stmt 0                 // sc.c:0:0
	mov	w0, wzr
	.loc	4 165 18 is_stmt 1              // sc.c:165:18
	str	x19, [x20, #104]
	ldp	x20, x19, [sp, #16]             // 16-byte Folded Reload
.Ltmp386:
	//DEBUG_VALUE: sc_set_data:sc <- [DW_OP_LLVM_entry_value 1] $x0
	//DEBUG_VALUE: sc_set_data:data_len <- [DW_OP_LLVM_entry_value 1] $x2
	.loc	4 0 18 is_stmt 0                // sc.c:0:18
	ldp	x30, x21, [sp], #32             // 16-byte Folded Reload
.Ltmp387:
	//DEBUG_VALUE: sc_set_data:data <- [DW_OP_LLVM_entry_value 1] $x1
	.loc	4 167 1 is_stmt 1               // sc.c:167:1
	ret
.Ltmp388:
.LBB15_4:
	//DEBUG_VALUE: sc_set_data:data_len <- $x2
	//DEBUG_VALUE: sc_set_data:data <- $x1
	//DEBUG_VALUE: sc_set_data:sc <- $x0
	.loc	4 0 1 is_stmt 0                 // sc.c:0:1
	mov	w0, #-1
.Ltmp389:
	//DEBUG_VALUE: sc_set_data:sc <- [DW_OP_LLVM_entry_value 1] $x0
	.loc	4 167 1                         // sc.c:167:1
	ret
.Ltmp390:
.Lfunc_end15:
	.size	sc_set_data, .Lfunc_end15-sc_set_data
	.cfi_endproc
                                        // -- End function
	.globl	print_menu                      // -- Begin function print_menu
	.p2align	2
	.type	print_menu,@function
print_menu:                             // @print_menu
.Lfunc_begin16:
	.loc	3 33 0 is_stmt 1                // main.c:33:0
	.cfi_startproc
// %bb.0:
	str	x30, [sp, #-16]!                // 8-byte Folded Spill
	.cfi_def_cfa_offset 16
	.cfi_offset w30, -16
.Ltmp391:
	.loc	3 34 5 prologue_end             // main.c:34:5
	adrp	x0, .Lstr
	add	x0, x0, :lo12:.Lstr
	bl	puts
.Ltmp392:
	.loc	3 35 5                          // main.c:35:5
	adrp	x0, .Lstr.16
	add	x0, x0, :lo12:.Lstr.16
	bl	puts
.Ltmp393:
	.loc	3 36 5                          // main.c:36:5
	adrp	x0, .Lstr.17
	add	x0, x0, :lo12:.Lstr.17
	bl	puts
.Ltmp394:
	.loc	3 37 1                          // main.c:37:1
	ldr	x30, [sp], #16                  // 8-byte Folded Reload
	ret
.Ltmp395:
.Lfunc_end16:
	.size	print_menu, .Lfunc_end16-print_menu
	.cfi_endproc
                                        // -- End function
	.globl	handle_compress                 // -- Begin function handle_compress
	.p2align	2
	.type	handle_compress,@function
handle_compress:                        // @handle_compress
.Lfunc_begin17:
	.loc	3 40 0                          // main.c:40:0
	.cfi_startproc
// %bb.0:
	str	x29, [sp, #-48]!                // 8-byte Folded Spill
	stp	x30, x21, [sp, #16]             // 16-byte Folded Spill
	stp	x20, x19, [sp, #32]             // 16-byte Folded Spill
	sub	sp, sp, #1, lsl #12             // =4096
	sub	sp, sp, #112                    // =112
	.cfi_def_cfa_offset 4256
	.cfi_offset w19, -8
	.cfi_offset w20, -16
	.cfi_offset w21, -24
	.cfi_offset w30, -32
	.cfi_offset w29, -48
.Ltmp396:
	//DEBUG_VALUE: handle_compress:out <- 0
	.loc	3 42 29 prologue_end            // main.c:42:29
	str	xzr, [sp, #4216]
.Ltmp397:
	//DEBUG_VALUE: handle_compress:outlen <- 0
	.loc	3 44 12                         // main.c:44:12
	str	xzr, [sp, #8]
.Ltmp398:
	//DEBUG_VALUE: handle_compress:sc <- 0
	.loc	3 47 5                          // main.c:47:5
	adrp	x0, .Lstr.18
	add	x0, x0, :lo12:.Lstr.18
	bl	puts
.Ltmp399:
	.loc	3 48 33                         // main.c:48:33
	adrp	x8, stdin
	ldr	x20, [x8, :lo12:stdin]
	.loc	3 48 9 is_stmt 0                // main.c:48:9
	add	x0, sp, #1, lsl #12             // =4096
	add	x0, x0, #16                     // =16
	mov	w1, #95
	add	x21, sp, #1, lsl #12            // =4096
	add	x21, x21, #16                   // =16
	mov	x2, x20
	bl	fread
.Ltmp400:
	.loc	3 48 9                          // main.c:48:9
	cmp	x0, #95                         // =95
	.loc	3 0 0                           // main.c:0:0
	mov	x19, xzr
	.loc	3 48 9                          // main.c:48:9
	b.ne	.LBB17_13
.Ltmp401:
// %bb.1:
	//DEBUG_VALUE: handle_compress:sc <- 0
	//DEBUG_VALUE: handle_compress:outlen <- 0
	//DEBUG_VALUE: handle_compress:out <- 0
	.loc	3 51 5 is_stmt 1                // main.c:51:5
	add	x0, sp, #16                     // =16
	mov	w2, #4096
	add	x19, sp, #16                    // =16
	mov	w1, wzr
	bl	memset
.Ltmp402:
	//DEBUG_VALUE: handle_compress:i <- 0
	.loc	3 0 5 is_stmt 0                 // main.c:0:5
	mov	x8, xzr
.Ltmp403:
.LBB17_2:                               // =>This Inner Loop Header: Depth=1
	//DEBUG_VALUE: handle_compress:sc <- 0
	//DEBUG_VALUE: handle_compress:outlen <- 0
	//DEBUG_VALUE: handle_compress:out <- 0
	//DEBUG_VALUE: handle_compress:i <- $x8
	.loc	3 54 13 is_stmt 1               // main.c:54:13
	ldrb	w9, [x21, x8]
	.loc	3 54 25 is_stmt 0               // main.c:54:25
	sub	w10, w9, #32                    // =32
	and	w10, w10, #0xff
	cmp	w10, #94                        // =94
	b.hi	.LBB17_12
.Ltmp404:
// %bb.3:                               //   in Loop: Header=BB17_2 Depth=1
	//DEBUG_VALUE: handle_compress:i <- $x8
	//DEBUG_VALUE: handle_compress:sc <- 0
	//DEBUG_VALUE: handle_compress:outlen <- 0
	//DEBUG_VALUE: handle_compress:out <- 0
	.loc	3 56 25 is_stmt 1               // main.c:56:25
	ldrb	w10, [x19, x9]
	add	w11, w10, #1                    // =1
	strb	w11, [x19, x9]
.Ltmp405:
	//DEBUG_VALUE: handle_compress:i <- [DW_OP_plus_uconst 1, DW_OP_stack_value] $x8
	.loc	3 56 13 is_stmt 0               // main.c:56:13
	cbnz	w10, .LBB17_12
.Ltmp406:
// %bb.4:                               //   in Loop: Header=BB17_2 Depth=1
	//DEBUG_VALUE: handle_compress:i <- [DW_OP_plus_uconst 1, DW_OP_stack_value] $x8
	//DEBUG_VALUE: handle_compress:sc <- 0
	//DEBUG_VALUE: handle_compress:outlen <- 0
	//DEBUG_VALUE: handle_compress:out <- 0
	.loc	3 52 34 is_stmt 1               // main.c:52:34
	add	x8, x8, #1                      // =1
.Ltmp407:
	//DEBUG_VALUE: handle_compress:i <- $x8
	.loc	3 52 5 is_stmt 0                // main.c:52:5
	cmp	x8, #95                         // =95
	b.ne	.LBB17_2
.Ltmp408:
// %bb.5:
	//DEBUG_VALUE: handle_compress:i <- $x8
	//DEBUG_VALUE: handle_compress:sc <- 0
	//DEBUG_VALUE: handle_compress:outlen <- 0
	//DEBUG_VALUE: handle_compress:out <- 0
	.loc	3 60 5 is_stmt 1                // main.c:60:5
	adrp	x0, .Lstr.19
	add	x0, x0, :lo12:.Lstr.19
	bl	puts
.Ltmp409:
	.loc	3 61 5                          // main.c:61:5
	add	x0, sp, #16                     // =16
	mov	w2, #4096
	add	x21, sp, #16                    // =16
	mov	w1, wzr
	bl	memset
.Ltmp410:
	.loc	3 62 12                         // main.c:62:12
	adrp	x8, stdout
	ldr	x0, [x8, :lo12:stdout]
	.loc	3 62 5 is_stmt 0                // main.c:62:5
	bl	fflush
.Ltmp411:
	.loc	3 63 9 is_stmt 1                // main.c:63:9
	add	x0, sp, #16                     // =16
	mov	w1, #4096
	mov	w2, wzr
	mov	x3, x20
	bl	freaduntil
.Ltmp412:
	.loc	3 63 9 is_stmt 0                // main.c:63:9
	tbnz	x0, #63, .LBB17_12
.Ltmp413:
// %bb.6:
	//DEBUG_VALUE: handle_compress:sc <- 0
	//DEBUG_VALUE: handle_compress:outlen <- 0
	//DEBUG_VALUE: handle_compress:out <- 0
	.loc	3 66 10 is_stmt 1               // main.c:66:10
	add	x0, sp, #1, lsl #12             // =4096
	add	x0, x0, #16                     // =16
	bl	sc_new
.Ltmp414:
	mov	x19, x0
.Ltmp415:
	//DEBUG_VALUE: handle_compress:sc <- $x19
	.loc	3 67 14                         // main.c:67:14
	str	x21, [x0, #96]
	.loc	3 68 20                         // main.c:68:20
	add	x0, sp, #16                     // =16
	bl	strlen
.Ltmp416:
	.loc	3 68 18 is_stmt 0               // main.c:68:18
	str	x0, [x19, #104]
.Ltmp417:
	//DEBUG_VALUE: handle_compress:outlen <- [DW_OP_plus_uconst 8, DW_OP_deref] $sp
	//DEBUG_VALUE: handle_compress:out <- [DW_OP_plus_uconst 4216, DW_OP_deref] $sp
	.loc	3 69 9 is_stmt 1                // main.c:69:9
	add	x1, sp, #1, lsl #12             // =4096
	add	x1, x1, #120                    // =120
	add	x2, sp, #8                      // =8
	mov	x0, x19
	bl	sc_scompress
.Ltmp418:
	.loc	3 69 9 is_stmt 0                // main.c:69:9
	tbnz	w0, #31, .LBB17_13
.Ltmp419:
// %bb.7:
	//DEBUG_VALUE: handle_compress:sc <- $x19
	//DEBUG_VALUE: handle_compress:out <- [DW_OP_plus_uconst 4216, DW_OP_deref] $sp
	//DEBUG_VALUE: handle_compress:outlen <- [DW_OP_plus_uconst 8, DW_OP_deref] $sp
	.loc	3 71 39 is_stmt 1               // main.c:71:39
	ldr	x1, [x19, #104]
	.loc	3 71 5 is_stmt 0                // main.c:71:5
	adrp	x0, .L.str.5
	add	x0, x0, :lo12:.L.str.5
	bl	printf
.Ltmp420:
	.loc	3 72 44 is_stmt 1               // main.c:72:44
	ldr	x20, [sp, #8]
.Ltmp421:
	//DEBUG_VALUE: handle_compress:outlen <- $x20
	.loc	3 72 61 is_stmt 0               // main.c:72:61
	mov	x0, x20
	bl	__floatundidf
.Ltmp422:
	.loc	3 72 75                         // main.c:72:75
	ldr	x8, [x19, #104]
	.loc	3 72 61                         // main.c:72:61
	mov	x21, x0
	.loc	3 72 71                         // main.c:72:71
	mov	x0, x8
	bl	__floatundidf
.Ltmp423:
	mov	x1, x0
	.loc	3 72 68                         // main.c:72:68
	mov	x0, x21
	bl	__divdf3
.Ltmp424:
	.loc	3 72 92                         // main.c:72:92
	mov	x1, #4636737291354636288
	bl	__muldf3
.Ltmp425:
	.loc	3 72 53                         // main.c:72:53
	bl	__fixdfsi
.Ltmp426:
	mov	w2, w0
	.loc	3 72 5                          // main.c:72:5
	adrp	x0, .L.str.6
	add	x0, x0, :lo12:.L.str.6
	mov	x1, x20
	bl	printf
.Ltmp427:
	.loc	3 73 5 is_stmt 1                // main.c:73:5
	adrp	x0, .L.str.7
	add	x0, x0, :lo12:.L.str.7
	bl	printf
.Ltmp428:
	//DEBUG_VALUE: handle_compress:i <- 0
	.loc	3 74 21                         // main.c:74:21
	ldr	x8, [sp, #8]
.Ltmp429:
	//DEBUG_VALUE: handle_compress:outlen <- $x8
	.loc	3 74 5 is_stmt 0                // main.c:74:5
	cbz	x8, .LBB17_11
.Ltmp430:
// %bb.8:                               // %.preheader
	//DEBUG_VALUE: handle_compress:sc <- $x19
	//DEBUG_VALUE: handle_compress:outlen <- $x8
	//DEBUG_VALUE: handle_compress:out <- [DW_OP_plus_uconst 4216, DW_OP_deref] $sp
	//DEBUG_VALUE: handle_compress:i <- 0
	.loc	3 0 5                           // main.c:0:5
	mov	x21, xzr
	adrp	x20, .L.str.8
	add	x20, x20, :lo12:.L.str.8
.Ltmp431:
.LBB17_9:                               // =>This Inner Loop Header: Depth=1
	//DEBUG_VALUE: handle_compress:sc <- $x19
	//DEBUG_VALUE: handle_compress:outlen <- $x8
	//DEBUG_VALUE: handle_compress:i <- $x21
	.loc	3 75 24 is_stmt 1               // main.c:75:24
	ldr	x8, [sp, #4216]
.Ltmp432:
	//DEBUG_VALUE: handle_compress:out <- $x8
	ldrb	w1, [x8, x21]
	.loc	3 75 9 is_stmt 0                // main.c:75:9
	mov	x0, x20
	bl	printf
.Ltmp433:
	//DEBUG_VALUE: handle_compress:i <- undef
	//DEBUG_VALUE: handle_compress:outlen <- undef
	.loc	3 74 5 is_stmt 1                // main.c:74:5
	cmp	x21, #30                        // =30
	b.hi	.LBB17_11
.Ltmp434:
// %bb.10:                              //   in Loop: Header=BB17_9 Depth=1
	//DEBUG_VALUE: handle_compress:sc <- $x19
	.loc	3 0 0 is_stmt 0                 // main.c:0:0
	ldr	x8, [sp, #8]
.Ltmp435:
	//DEBUG_VALUE: handle_compress:outlen <- $x8
	add	x21, x21, #1                    // =1
.Ltmp436:
	//DEBUG_VALUE: handle_compress:i <- $x21
	.loc	3 74 5                          // main.c:74:5
	cmp	x8, x21
	b.hi	.LBB17_9
.Ltmp437:
.LBB17_11:
	//DEBUG_VALUE: handle_compress:sc <- $x19
	.loc	3 76 5 is_stmt 1                // main.c:76:5
	mov	w0, #10
	bl	putchar
.Ltmp438:
	.loc	3 0 5 is_stmt 0                 // main.c:0:5
	b	.LBB17_14
.Ltmp439:
.LBB17_12:
	//DEBUG_VALUE: handle_compress:sc <- 0
	//DEBUG_VALUE: handle_compress:outlen <- 0
	//DEBUG_VALUE: handle_compress:out <- 0
	mov	x19, xzr
.Ltmp440:
.LBB17_13:
	//DEBUG_VALUE: handle_compress:sc <- $x19
	//DEBUG_LABEL: handle_compress:fail
	.loc	3 81 5 is_stmt 1                // main.c:81:5
	adrp	x0, .Lstr.20
	add	x0, x0, :lo12:.Lstr.20
	bl	puts
.Ltmp441:
.LBB17_14:
	//DEBUG_VALUE: handle_compress:sc <- $x19
	//DEBUG_VALUE: handle_compress:sc <- $x19
	//DEBUG_LABEL: handle_compress:done
	.loc	3 83 9                          // main.c:83:9
	cbz	x19, .LBB17_16
.Ltmp442:
// %bb.15:
	//DEBUG_VALUE: handle_compress:sc <- $x19
	.loc	3 84 9                          // main.c:84:9
	mov	x0, x19
	bl	free
.Ltmp443:
.LBB17_16:
	//DEBUG_VALUE: handle_compress:sc <- $x19
	.loc	3 85 9                          // main.c:85:9
	ldr	x0, [sp, #4216]
.Ltmp444:
	//DEBUG_VALUE: handle_compress:out <- $x0
	.loc	3 85 9 is_stmt 0                // main.c:85:9
	cbz	x0, .LBB17_18
.Ltmp445:
// %bb.17:
	//DEBUG_VALUE: handle_compress:sc <- $x19
	//DEBUG_VALUE: handle_compress:out <- $x0
	.loc	3 86 9 is_stmt 1                // main.c:86:9
	bl	free
.Ltmp446:
.LBB17_18:
	//DEBUG_VALUE: handle_compress:sc <- $x19
	.loc	3 87 1                          // main.c:87:1
	add	sp, sp, #1, lsl #12             // =4096
	add	sp, sp, #112                    // =112
	ldp	x20, x19, [sp, #32]             // 16-byte Folded Reload
.Ltmp447:
	ldp	x30, x21, [sp, #16]             // 16-byte Folded Reload
	ldr	x29, [sp], #48                  // 8-byte Folded Reload
	ret
.Ltmp448:
.Lfunc_end17:
	.size	handle_compress, .Lfunc_end17-handle_compress
	.cfi_endproc
	.file	6 "/home/salman/DPP/data/KPRCA_00064/src/./stdio.h"
                                        // -- End function
	.globl	handle_decompress               // -- Begin function handle_decompress
	.p2align	2
	.type	handle_decompress,@function
handle_decompress:                      // @handle_decompress
.Lfunc_begin18:
	.loc	3 90 0                          // main.c:90:0
	.cfi_startproc
// %bb.0:
	str	x29, [sp, #-64]!                // 8-byte Folded Spill
	stp	x30, x23, [sp, #16]             // 16-byte Folded Spill
	stp	x22, x21, [sp, #32]             // 16-byte Folded Spill
	stp	x20, x19, [sp, #48]             // 16-byte Folded Spill
	sub	sp, sp, #1, lsl #12             // =4096
	sub	sp, sp, #112                    // =112
	.cfi_def_cfa_offset 4272
	.cfi_offset w19, -8
	.cfi_offset w20, -16
	.cfi_offset w21, -24
	.cfi_offset w22, -32
	.cfi_offset w23, -40
	.cfi_offset w30, -48
	.cfi_offset w29, -64
.Ltmp449:
	//DEBUG_VALUE: handle_decompress:out <- 0
	.loc	3 92 29 prologue_end            // main.c:92:29
	str	xzr, [sp, #4216]
.Ltmp450:
	//DEBUG_VALUE: handle_decompress:outlen <- 0
	.loc	3 94 12                         // main.c:94:12
	str	xzr, [sp, #8]
.Ltmp451:
	//DEBUG_VALUE: handle_decompress:sc <- 0
	//DEBUG_VALUE: handle_decompress:len <- 0
	.loc	3 97 5                          // main.c:97:5
	adrp	x0, .Lstr.21
	add	x0, x0, :lo12:.Lstr.21
	bl	puts
.Ltmp452:
	.loc	3 98 33                         // main.c:98:33
	adrp	x8, stdin
	ldr	x19, [x8, :lo12:stdin]
	.loc	3 98 9 is_stmt 0                // main.c:98:9
	add	x0, sp, #1, lsl #12             // =4096
	add	x0, x0, #16                     // =16
	mov	w1, #95
	add	x20, sp, #1, lsl #12            // =4096
	add	x20, x20, #16                   // =16
	mov	x2, x19
	bl	fread
.Ltmp453:
	.loc	3 98 9                          // main.c:98:9
	cmp	x0, #95                         // =95
	.loc	3 0 0                           // main.c:0:0
	mov	x21, xzr
	.loc	3 98 9                          // main.c:98:9
	b.ne	.LBB18_11
.Ltmp454:
// %bb.1:
	//DEBUG_VALUE: handle_decompress:len <- 0
	//DEBUG_VALUE: handle_decompress:sc <- 0
	//DEBUG_VALUE: handle_decompress:outlen <- 0
	//DEBUG_VALUE: handle_decompress:out <- 0
	.loc	3 101 5 is_stmt 1               // main.c:101:5
	add	x0, sp, #16                     // =16
	mov	w2, #4096
	add	x21, sp, #16                    // =16
	mov	w1, wzr
	bl	memset
.Ltmp455:
	//DEBUG_VALUE: handle_decompress:i <- 0
	.loc	3 0 5 is_stmt 0                 // main.c:0:5
	mov	x8, xzr
.Ltmp456:
.LBB18_2:                               // =>This Inner Loop Header: Depth=1
	//DEBUG_VALUE: handle_decompress:len <- 0
	//DEBUG_VALUE: handle_decompress:sc <- 0
	//DEBUG_VALUE: handle_decompress:outlen <- 0
	//DEBUG_VALUE: handle_decompress:out <- 0
	//DEBUG_VALUE: handle_decompress:i <- $x8
	.loc	3 104 13 is_stmt 1              // main.c:104:13
	ldrb	w9, [x20, x8]
	.loc	3 104 25 is_stmt 0              // main.c:104:25
	sub	w10, w9, #32                    // =32
	and	w10, w10, #0xff
	cmp	w10, #94                        // =94
	b.hi	.LBB18_10
.Ltmp457:
// %bb.3:                               //   in Loop: Header=BB18_2 Depth=1
	//DEBUG_VALUE: handle_decompress:i <- $x8
	//DEBUG_VALUE: handle_decompress:len <- 0
	//DEBUG_VALUE: handle_decompress:sc <- 0
	//DEBUG_VALUE: handle_decompress:outlen <- 0
	//DEBUG_VALUE: handle_decompress:out <- 0
	.loc	3 106 25 is_stmt 1              // main.c:106:25
	ldrb	w10, [x21, x9]
	add	w11, w10, #1                    // =1
	strb	w11, [x21, x9]
.Ltmp458:
	//DEBUG_VALUE: handle_decompress:i <- [DW_OP_plus_uconst 1, DW_OP_stack_value] $x8
	.loc	3 106 13 is_stmt 0              // main.c:106:13
	cbnz	w10, .LBB18_10
.Ltmp459:
// %bb.4:                               //   in Loop: Header=BB18_2 Depth=1
	//DEBUG_VALUE: handle_decompress:i <- [DW_OP_plus_uconst 1, DW_OP_stack_value] $x8
	//DEBUG_VALUE: handle_decompress:len <- 0
	//DEBUG_VALUE: handle_decompress:sc <- 0
	//DEBUG_VALUE: handle_decompress:outlen <- 0
	//DEBUG_VALUE: handle_decompress:out <- 0
	.loc	3 102 34 is_stmt 1              // main.c:102:34
	add	x8, x8, #1                      // =1
.Ltmp460:
	//DEBUG_VALUE: handle_decompress:i <- $x8
	.loc	3 102 5 is_stmt 0               // main.c:102:5
	cmp	x8, #95                         // =95
	b.ne	.LBB18_2
.Ltmp461:
// %bb.5:
	//DEBUG_VALUE: handle_decompress:i <- $x8
	//DEBUG_VALUE: handle_decompress:len <- 0
	//DEBUG_VALUE: handle_decompress:sc <- 0
	//DEBUG_VALUE: handle_decompress:outlen <- 0
	//DEBUG_VALUE: handle_decompress:out <- 0
	.loc	3 110 5 is_stmt 1               // main.c:110:5
	adrp	x0, .Lstr.22
	add	x0, x0, :lo12:.Lstr.22
	bl	puts
.Ltmp462:
	.loc	3 111 5                         // main.c:111:5
	add	x0, sp, #16                     // =16
	mov	w2, #4096
	mov	w1, wzr
	bl	memset
.Ltmp463:
	.loc	3 112 12                        // main.c:112:12
	adrp	x8, stdout
	ldr	x20, [x8, :lo12:stdout]
	.loc	3 112 5 is_stmt 0               // main.c:112:5
	mov	x0, x20
	bl	fflush
.Ltmp464:
	.loc	3 113 9 is_stmt 1               // main.c:113:9
	add	x0, sp, #16                     // =16
	mov	w1, #4096
	mov	w2, #10
	mov	x3, x19
	bl	freaduntil
.Ltmp465:
	.loc	3 113 9 is_stmt 0               // main.c:113:9
	tbnz	x0, #63, .LBB18_10
.Ltmp466:
// %bb.6:
	//DEBUG_VALUE: handle_decompress:len <- 0
	//DEBUG_VALUE: handle_decompress:sc <- 0
	//DEBUG_VALUE: handle_decompress:outlen <- 0
	//DEBUG_VALUE: handle_decompress:out <- 0
	.loc	3 115 11 is_stmt 1              // main.c:115:11
	add	x0, sp, #16                     // =16
	mov	w2, #10
	mov	x1, xzr
	bl	strtoul
.Ltmp467:
	//DEBUG_VALUE: handle_decompress:len <- $x0
	.loc	3 116 9                         // main.c:116:9
	cmp	x0, #1, lsl #12                 // =4096
	.loc	3 0 0 is_stmt 0                 // main.c:0:0
	mov	x21, xzr
	.loc	3 116 9                         // main.c:116:9
	b.hi	.LBB18_11
.Ltmp468:
// %bb.7:
	//DEBUG_VALUE: handle_decompress:len <- $x0
	//DEBUG_VALUE: handle_decompress:sc <- 0
	//DEBUG_VALUE: handle_decompress:outlen <- 0
	//DEBUG_VALUE: handle_decompress:out <- 0
	.loc	3 0 0                           // main.c:0:0
	mov	x22, x0
.Ltmp469:
	//DEBUG_VALUE: handle_decompress:len <- $x22
	.loc	3 119 5 is_stmt 1               // main.c:119:5
	adrp	x0, .Lstr.23
	add	x0, x0, :lo12:.Lstr.23
	bl	puts
.Ltmp470:
	.loc	3 120 5                         // main.c:120:5
	add	x0, sp, #16                     // =16
	mov	w2, #4096
	add	x23, sp, #16                    // =16
	mov	w1, wzr
	bl	memset
.Ltmp471:
	.loc	3 121 9                         // main.c:121:9
	add	x0, sp, #16                     // =16
	mov	x1, x22
	mov	x2, x19
	bl	fread
.Ltmp472:
	.loc	3 121 9 is_stmt 0               // main.c:121:9
	tbnz	x0, #63, .LBB18_10
.Ltmp473:
// %bb.8:
	//DEBUG_VALUE: handle_decompress:len <- $x22
	//DEBUG_VALUE: handle_decompress:sc <- 0
	//DEBUG_VALUE: handle_decompress:outlen <- 0
	//DEBUG_VALUE: handle_decompress:out <- 0
	.loc	3 124 10 is_stmt 1              // main.c:124:10
	add	x0, sp, #1, lsl #12             // =4096
	add	x0, x0, #16                     // =16
	bl	sc_new
.Ltmp474:
	mov	x21, x0
.Ltmp475:
	//DEBUG_VALUE: handle_decompress:sc <- $x21
	.loc	3 125 14                        // main.c:125:14
	stp	x23, x22, [x0, #96]
.Ltmp476:
	//DEBUG_VALUE: handle_decompress:outlen <- [DW_OP_plus_uconst 8, DW_OP_deref] $sp
	//DEBUG_VALUE: handle_decompress:out <- [DW_OP_plus_uconst 4216, DW_OP_deref] $sp
	.loc	3 127 9                         // main.c:127:9
	add	x1, sp, #1, lsl #12             // =4096
	add	x1, x1, #120                    // =120
	add	x2, sp, #8                      // =8
	bl	sc_sdecompress
.Ltmp477:
	.loc	3 127 9 is_stmt 0               // main.c:127:9
	tbnz	w0, #31, .LBB18_11
.Ltmp478:
// %bb.9:
	//DEBUG_VALUE: handle_decompress:len <- $x22
	//DEBUG_VALUE: handle_decompress:sc <- $x21
	//DEBUG_VALUE: handle_decompress:out <- [DW_OP_plus_uconst 4216, DW_OP_deref] $sp
	//DEBUG_VALUE: handle_decompress:outlen <- [DW_OP_plus_uconst 8, DW_OP_deref] $sp
	.loc	3 129 41 is_stmt 1              // main.c:129:41
	ldr	x1, [x21, #104]
	.loc	3 129 5 is_stmt 0               // main.c:129:5
	adrp	x0, .L.str.12
	add	x0, x0, :lo12:.L.str.12
	bl	printf
.Ltmp479:
	.loc	3 130 51 is_stmt 1              // main.c:130:51
	ldr	x0, [sp, #4216]
.Ltmp480:
	//DEBUG_VALUE: handle_decompress:out <- $x0
	.loc	3 130 35 is_stmt 0              // main.c:130:35
	bl	strlen
.Ltmp481:
	mov	x1, x0
	.loc	3 130 5                         // main.c:130:5
	adrp	x0, .L.str.5
	add	x0, x0, :lo12:.L.str.5
	bl	printf
.Ltmp482:
	.loc	3 131 5 is_stmt 1               // main.c:131:5
	adrp	x0, .L.str.13
	add	x0, x0, :lo12:.L.str.13
	bl	printf
.Ltmp483:
	.loc	3 132 12                        // main.c:132:12
	ldr	x0, [sp, #4216]
.Ltmp484:
	//DEBUG_VALUE: handle_decompress:out <- $x0
	.loc	3 132 17 is_stmt 0              // main.c:132:17
	ldr	x1, [sp, #8]
.Ltmp485:
	//DEBUG_VALUE: handle_decompress:outlen <- $x1
	.loc	3 132 5                         // main.c:132:5
	mov	x2, x20
	bl	fwrite
.Ltmp486:
	.loc	3 133 5 is_stmt 1               // main.c:133:5
	adrp	x0, .L.str.9
	add	x0, x0, :lo12:.L.str.9
	mov	w1, #1
	mov	x2, x20
	bl	fwrite
.Ltmp487:
	.loc	3 0 5 is_stmt 0                 // main.c:0:5
	b	.LBB18_12
.Ltmp488:
.LBB18_10:
	//DEBUG_VALUE: handle_decompress:sc <- 0
	//DEBUG_VALUE: handle_decompress:outlen <- 0
	//DEBUG_VALUE: handle_decompress:out <- 0
	mov	x21, xzr
.Ltmp489:
.LBB18_11:
	//DEBUG_VALUE: handle_decompress:sc <- $x21
	//DEBUG_LABEL: handle_decompress:fail
	.loc	3 137 5 is_stmt 1               // main.c:137:5
	adrp	x0, .Lstr.24
	add	x0, x0, :lo12:.Lstr.24
	bl	puts
.Ltmp490:
.LBB18_12:
	//DEBUG_VALUE: handle_decompress:sc <- $x21
	//DEBUG_VALUE: handle_decompress:sc <- $x21
	//DEBUG_LABEL: handle_decompress:done
	.loc	3 139 9                         // main.c:139:9
	cbz	x21, .LBB18_14
.Ltmp491:
// %bb.13:
	//DEBUG_VALUE: handle_decompress:sc <- $x21
	.loc	3 140 9                         // main.c:140:9
	mov	x0, x21
	bl	free
.Ltmp492:
.LBB18_14:
	//DEBUG_VALUE: handle_decompress:sc <- $x21
	.loc	3 141 9                         // main.c:141:9
	ldr	x0, [sp, #4216]
.Ltmp493:
	//DEBUG_VALUE: handle_decompress:out <- $x0
	.loc	3 141 9 is_stmt 0               // main.c:141:9
	cbz	x0, .LBB18_16
.Ltmp494:
// %bb.15:
	//DEBUG_VALUE: handle_decompress:sc <- $x21
	//DEBUG_VALUE: handle_decompress:out <- $x0
	.loc	3 142 9 is_stmt 1               // main.c:142:9
	bl	free
.Ltmp495:
.LBB18_16:
	//DEBUG_VALUE: handle_decompress:sc <- $x21
	.loc	3 143 1                         // main.c:143:1
	add	sp, sp, #1, lsl #12             // =4096
	add	sp, sp, #112                    // =112
	ldp	x20, x19, [sp, #48]             // 16-byte Folded Reload
	ldp	x22, x21, [sp, #32]             // 16-byte Folded Reload
.Ltmp496:
	ldp	x30, x23, [sp, #16]             // 16-byte Folded Reload
	ldr	x29, [sp], #64                  // 8-byte Folded Reload
	ret
.Ltmp497:
.Lfunc_end18:
	.size	handle_decompress, .Lfunc_end18-handle_decompress
	.cfi_endproc
                                        // -- End function
	.globl	main                            // -- Begin function main
	.p2align	2
	.type	main,@function
main:                                   // @main
.Lfunc_begin19:
	.loc	3 146 0                         // main.c:146:0
	.cfi_startproc
// %bb.0:
	str	x30, [sp, #-48]!                // 8-byte Folded Spill
	stp	x22, x21, [sp, #16]             // 16-byte Folded Spill
	stp	x20, x19, [sp, #32]             // 16-byte Folded Spill
	.cfi_def_cfa_offset 48
	.cfi_offset w19, -8
	.cfi_offset w20, -16
	.cfi_offset w21, -24
	.cfi_offset w22, -32
	.cfi_offset w30, -48
.Ltmp498:
	.loc	3 149 15 prologue_end           // main.c:149:15
	adrp	x8, stdin
	ldr	x19, [x8, :lo12:stdin]
	.loc	3 149 5 is_stmt 0               // main.c:149:5
	mov	w1, #1
	mov	x0, x19
	bl	fbuffered
.Ltmp499:
	//DEBUG_VALUE: main:i <- 0
	.loc	3 0 5                           // main.c:0:5
	mov	x21, xzr
	adrp	x22, secret
	adrp	x20, .L.str.8
	add	x20, x20, :lo12:.L.str.8
.Ltmp500:
.LBB19_1:                               // =>This Inner Loop Header: Depth=1
	//DEBUG_VALUE: main:i <- $x21
	.loc	3 151 24 is_stmt 1              // main.c:151:24
	ldr	x8, [x22, :lo12:secret]
	ldrb	w1, [x8, x21]
	.loc	3 151 9 is_stmt 0               // main.c:151:9
	mov	x0, x20
	bl	printf
.Ltmp501:
	.loc	3 150 5 is_stmt 1               // main.c:150:5
	cmp	x21, #6                         // =6
.Ltmp502:
	.loc	3 150 26 is_stmt 0              // main.c:150:26
	add	x21, x21, #2                    // =2
.Ltmp503:
	//DEBUG_VALUE: main:i <- $x21
	//DEBUG_VALUE: main:i <- $x21
	.loc	3 150 5                         // main.c:150:5
	b.lo	.LBB19_1
.Ltmp504:
// %bb.2:
	//DEBUG_VALUE: main:i <- $x21
	.loc	3 152 5 is_stmt 1               // main.c:152:5
	mov	w0, #10
	bl	putchar
.Ltmp505:
	.loc	3 155 9                         // main.c:155:9
	bl	print_menu
.Ltmp506:
	.loc	3 156 16                        // main.c:156:16
	adrp	x8, stdout
	ldr	x20, [x8, :lo12:stdout]
	.loc	3 156 9 is_stmt 0               // main.c:156:9
	mov	x0, x20
	bl	fflush
.Ltmp507:
	.loc	3 157 13 is_stmt 1              // main.c:157:13
	add	x0, sp, #8                      // =8
	mov	w1, #8
	mov	w2, #10
	mov	x3, x19
	bl	freaduntil
.Ltmp508:
	.loc	3 157 13 is_stmt 0              // main.c:157:13
	tbnz	x0, #63, .LBB19_11
.Ltmp509:
// %bb.3:
	//DEBUG_VALUE: main:i <- $x21
	.loc	3 0 13                          // main.c:0:13
	adrp	x21, .Lstr.26
.Ltmp510:
	add	x21, x21, :lo12:.Lstr.26
	b	.LBB19_6
.LBB19_4:                               //   in Loop: Header=BB19_6 Depth=1
.Ltmp511:
	.loc	3 165 17 is_stmt 1              // main.c:165:17
	bl	handle_decompress
.Ltmp512:
.LBB19_5:                               //   in Loop: Header=BB19_6 Depth=1
	.loc	3 155 9                         // main.c:155:9
	bl	print_menu
.Ltmp513:
	.loc	3 156 9                         // main.c:156:9
	mov	x0, x20
	bl	fflush
.Ltmp514:
	.loc	3 157 13                        // main.c:157:13
	add	x0, sp, #8                      // =8
	mov	w1, #8
	mov	w2, #10
	mov	x3, x19
	bl	freaduntil
.Ltmp515:
	.loc	3 157 13 is_stmt 0              // main.c:157:13
	tbnz	x0, #63, .LBB19_11
.LBB19_6:                               // =>This Inner Loop Header: Depth=1
	.loc	3 159 16 is_stmt 1              // main.c:159:16
	add	x0, sp, #8                      // =8
	mov	w2, #10
	mov	x1, xzr
	bl	strtoul
.Ltmp516:
	.loc	3 159 9 is_stmt 0               // main.c:159:9
	cmp	x0, #1                          // =1
	b.eq	.LBB19_10
// %bb.7:                               //   in Loop: Header=BB19_6 Depth=1
	cmp	x0, #2                          // =2
	b.eq	.LBB19_4
// %bb.8:                               //   in Loop: Header=BB19_6 Depth=1
	cmp	x0, #3                          // =3
	b.eq	.LBB19_12
// %bb.9:                               //   in Loop: Header=BB19_6 Depth=1
.Ltmp517:
	.loc	3 173 17 is_stmt 1              // main.c:173:17
	mov	x0, x21
	bl	puts
.Ltmp518:
	.loc	3 0 17 is_stmt 0                // main.c:0:17
	b	.LBB19_5
.LBB19_10:                              //   in Loop: Header=BB19_6 Depth=1
	.loc	3 162 17 is_stmt 1              // main.c:162:17
	bl	handle_compress
.Ltmp519:
	.loc	3 0 17 is_stmt 0                // main.c:0:17
	b	.LBB19_5
.Ltmp520:
.LBB19_11:
	.loc	3 158 13 is_stmt 1              // main.c:158:13
	mov	w0, #-1
	ldp	x20, x19, [sp, #32]             // 16-byte Folded Reload
	ldp	x22, x21, [sp, #16]             // 16-byte Folded Reload
	ldr	x30, [sp], #48                  // 8-byte Folded Reload
	ret
.Ltmp521:
.LBB19_12:
	.loc	3 168 17                        // main.c:168:17
	adrp	x0, .Lstr.25
	add	x0, x0, :lo12:.Lstr.25
	bl	puts
.Ltmp522:
	.loc	3 169 17                        // main.c:169:17
	mov	x0, x20
	bl	fflush
.Ltmp523:
	.loc	3 170 17                        // main.c:170:17
	mov	w0, wzr
	bl	exit
.Ltmp524:
.Lfunc_end19:
	.size	main, .Lfunc_end19-main
	.cfi_endproc
                                        // -- End function
	.type	secret,@object                  // @secret
	.data
	.globl	secret
	.p2align	3
secret:
	.xword	1128775680
	.size	secret, 8

	.type	.Lstr,@object                   // @str
	.section	.rodata.str1.1,"aMS",@progbits,1
.Lstr:
	.asciz	"1. Compress"
	.size	.Lstr, 12

	.type	.Lstr.16,@object                // @str.16
.Lstr.16:
	.asciz	"2. Decompress"
	.size	.Lstr.16, 14

	.type	.Lstr.17,@object                // @str.17
.Lstr.17:
	.asciz	"3. Quit"
	.size	.Lstr.17, 8

	.type	.Lstr.18,@object                // @str.18
.Lstr.18:
	.asciz	"Key?"
	.size	.Lstr.18, 5

	.type	.Lstr.19,@object                // @str.19
.Lstr.19:
	.asciz	"Data?"
	.size	.Lstr.19, 6

	.type	.L.str.5,@object                // @.str.5
.L.str.5:
	.asciz	"Original Size: %d\n"
	.size	.L.str.5, 19

	.type	.L.str.6,@object                // @.str.6
.L.str.6:
	.asciz	"Compressed Size: %d (%d%%)\n"
	.size	.L.str.6, 28

	.type	.L.str.7,@object                // @.str.7
.L.str.7:
	.asciz	"Compressed Data: "
	.size	.L.str.7, 18

	.type	.L.str.8,@object                // @.str.8
.L.str.8:
	.asciz	"%02X"
	.size	.L.str.8, 5

	.type	.Lstr.20,@object                // @str.20
.Lstr.20:
	.asciz	"error."
	.size	.Lstr.20, 7

	.type	.Lstr.21,@object                // @str.21
.Lstr.21:
	.asciz	"Key?"
	.size	.Lstr.21, 5

	.type	.Lstr.22,@object                // @str.22
.Lstr.22:
	.asciz	"Length?"
	.size	.Lstr.22, 8

	.type	.Lstr.23,@object                // @str.23
.Lstr.23:
	.asciz	"Data?"
	.size	.Lstr.23, 6

	.type	.L.str.12,@object               // @.str.12
.L.str.12:
	.asciz	"Compressed Size: %d\n"
	.size	.L.str.12, 21

	.type	.L.str.13,@object               // @.str.13
.L.str.13:
	.asciz	"Original Data: "
	.size	.L.str.13, 16

	.type	.L.str.9,@object                // @.str.9
.L.str.9:
	.asciz	"\n"
	.size	.L.str.9, 2

	.type	.Lstr.24,@object                // @str.24
.Lstr.24:
	.asciz	"error."
	.size	.Lstr.24, 7

	.type	.Lstr.25,@object                // @str.25
.Lstr.25:
	.asciz	"Bye."
	.size	.Lstr.25, 5

	.type	.Lstr.26,@object                // @str.26
.Lstr.26:
	.asciz	"Invalid menu."
	.size	.Lstr.26, 14

	.file	7 "/home/salman/DPP/data/KPRCA_00064/src/./libcgc.h"
	.section	".note.GNU-stack","",@progbits